
ctarget:     file format elf64-x86-64


Disassembly of section .init:

0000000000400c48 <_init>:
  400c48:	48 83 ec 08          	sub    $0x8,%rsp
  400c4c:	48 8b 05 a5 33 20 00 	mov    0x2033a5(%rip),%rax        # 603ff8 <_DYNAMIC+0x1d0>
  400c53:	48 85 c0             	test   %rax,%rax
  400c56:	74 05                	je     400c5d <_init+0x15>
  400c58:	e8 43 02 00 00       	callq  400ea0 <socket@plt+0x10>
  400c5d:	48 83 c4 08          	add    $0x8,%rsp
  400c61:	c3                   	retq   

Disassembly of section .plt:

0000000000400c70 <strcasecmp@plt-0x10>:
  400c70:	ff 35 92 33 20 00    	pushq  0x203392(%rip)        # 604008 <_GLOBAL_OFFSET_TABLE_+0x8>
  400c76:	ff 25 94 33 20 00    	jmpq   *0x203394(%rip)        # 604010 <_GLOBAL_OFFSET_TABLE_+0x10>
  400c7c:	0f 1f 40 00          	nopl   0x0(%rax)

0000000000400c80 <strcasecmp@plt>:
  400c80:	ff 25 92 33 20 00    	jmpq   *0x203392(%rip)        # 604018 <_GLOBAL_OFFSET_TABLE_+0x18>
  400c86:	68 00 00 00 00       	pushq  $0x0
  400c8b:	e9 e0 ff ff ff       	jmpq   400c70 <_init+0x28>

0000000000400c90 <__errno_location@plt>:
  400c90:	ff 25 8a 33 20 00    	jmpq   *0x20338a(%rip)        # 604020 <_GLOBAL_OFFSET_TABLE_+0x20>
  400c96:	68 01 00 00 00       	pushq  $0x1
  400c9b:	e9 d0 ff ff ff       	jmpq   400c70 <_init+0x28>

0000000000400ca0 <srandom@plt>:
  400ca0:	ff 25 82 33 20 00    	jmpq   *0x203382(%rip)        # 604028 <_GLOBAL_OFFSET_TABLE_+0x28>
  400ca6:	68 02 00 00 00       	pushq  $0x2
  400cab:	e9 c0 ff ff ff       	jmpq   400c70 <_init+0x28>

0000000000400cb0 <strncmp@plt>:
  400cb0:	ff 25 7a 33 20 00    	jmpq   *0x20337a(%rip)        # 604030 <_GLOBAL_OFFSET_TABLE_+0x30>
  400cb6:	68 03 00 00 00       	pushq  $0x3
  400cbb:	e9 b0 ff ff ff       	jmpq   400c70 <_init+0x28>

0000000000400cc0 <strcpy@plt>:
  400cc0:	ff 25 72 33 20 00    	jmpq   *0x203372(%rip)        # 604038 <_GLOBAL_OFFSET_TABLE_+0x38>
  400cc6:	68 04 00 00 00       	pushq  $0x4
  400ccb:	e9 a0 ff ff ff       	jmpq   400c70 <_init+0x28>

0000000000400cd0 <puts@plt>:
  400cd0:	ff 25 6a 33 20 00    	jmpq   *0x20336a(%rip)        # 604040 <_GLOBAL_OFFSET_TABLE_+0x40>
  400cd6:	68 05 00 00 00       	pushq  $0x5
  400cdb:	e9 90 ff ff ff       	jmpq   400c70 <_init+0x28>

0000000000400ce0 <write@plt>:
  400ce0:	ff 25 62 33 20 00    	jmpq   *0x203362(%rip)        # 604048 <_GLOBAL_OFFSET_TABLE_+0x48>
  400ce6:	68 06 00 00 00       	pushq  $0x6
  400ceb:	e9 80 ff ff ff       	jmpq   400c70 <_init+0x28>

0000000000400cf0 <__stack_chk_fail@plt>:
  400cf0:	ff 25 5a 33 20 00    	jmpq   *0x20335a(%rip)        # 604050 <_GLOBAL_OFFSET_TABLE_+0x50>
  400cf6:	68 07 00 00 00       	pushq  $0x7
  400cfb:	e9 70 ff ff ff       	jmpq   400c70 <_init+0x28>

0000000000400d00 <mmap@plt>:
  400d00:	ff 25 52 33 20 00    	jmpq   *0x203352(%rip)        # 604058 <_GLOBAL_OFFSET_TABLE_+0x58>
  400d06:	68 08 00 00 00       	pushq  $0x8
  400d0b:	e9 60 ff ff ff       	jmpq   400c70 <_init+0x28>

0000000000400d10 <memset@plt>:
  400d10:	ff 25 4a 33 20 00    	jmpq   *0x20334a(%rip)        # 604060 <_GLOBAL_OFFSET_TABLE_+0x60>
  400d16:	68 09 00 00 00       	pushq  $0x9
  400d1b:	e9 50 ff ff ff       	jmpq   400c70 <_init+0x28>

0000000000400d20 <alarm@plt>:
  400d20:	ff 25 42 33 20 00    	jmpq   *0x203342(%rip)        # 604068 <_GLOBAL_OFFSET_TABLE_+0x68>
  400d26:	68 0a 00 00 00       	pushq  $0xa
  400d2b:	e9 40 ff ff ff       	jmpq   400c70 <_init+0x28>

0000000000400d30 <close@plt>:
  400d30:	ff 25 3a 33 20 00    	jmpq   *0x20333a(%rip)        # 604070 <_GLOBAL_OFFSET_TABLE_+0x70>
  400d36:	68 0b 00 00 00       	pushq  $0xb
  400d3b:	e9 30 ff ff ff       	jmpq   400c70 <_init+0x28>

0000000000400d40 <read@plt>:
  400d40:	ff 25 32 33 20 00    	jmpq   *0x203332(%rip)        # 604078 <_GLOBAL_OFFSET_TABLE_+0x78>
  400d46:	68 0c 00 00 00       	pushq  $0xc
  400d4b:	e9 20 ff ff ff       	jmpq   400c70 <_init+0x28>

0000000000400d50 <__libc_start_main@plt>:
  400d50:	ff 25 2a 33 20 00    	jmpq   *0x20332a(%rip)        # 604080 <_GLOBAL_OFFSET_TABLE_+0x80>
  400d56:	68 0d 00 00 00       	pushq  $0xd
  400d5b:	e9 10 ff ff ff       	jmpq   400c70 <_init+0x28>

0000000000400d60 <signal@plt>:
  400d60:	ff 25 22 33 20 00    	jmpq   *0x203322(%rip)        # 604088 <_GLOBAL_OFFSET_TABLE_+0x88>
  400d66:	68 0e 00 00 00       	pushq  $0xe
  400d6b:	e9 00 ff ff ff       	jmpq   400c70 <_init+0x28>

0000000000400d70 <gethostbyname@plt>:
  400d70:	ff 25 1a 33 20 00    	jmpq   *0x20331a(%rip)        # 604090 <_GLOBAL_OFFSET_TABLE_+0x90>
  400d76:	68 0f 00 00 00       	pushq  $0xf
  400d7b:	e9 f0 fe ff ff       	jmpq   400c70 <_init+0x28>

0000000000400d80 <__memmove_chk@plt>:
  400d80:	ff 25 12 33 20 00    	jmpq   *0x203312(%rip)        # 604098 <_GLOBAL_OFFSET_TABLE_+0x98>
  400d86:	68 10 00 00 00       	pushq  $0x10
  400d8b:	e9 e0 fe ff ff       	jmpq   400c70 <_init+0x28>

0000000000400d90 <strtol@plt>:
  400d90:	ff 25 0a 33 20 00    	jmpq   *0x20330a(%rip)        # 6040a0 <_GLOBAL_OFFSET_TABLE_+0xa0>
  400d96:	68 11 00 00 00       	pushq  $0x11
  400d9b:	e9 d0 fe ff ff       	jmpq   400c70 <_init+0x28>

0000000000400da0 <memcpy@plt>:
  400da0:	ff 25 02 33 20 00    	jmpq   *0x203302(%rip)        # 6040a8 <_GLOBAL_OFFSET_TABLE_+0xa8>
  400da6:	68 12 00 00 00       	pushq  $0x12
  400dab:	e9 c0 fe ff ff       	jmpq   400c70 <_init+0x28>

0000000000400db0 <time@plt>:
  400db0:	ff 25 fa 32 20 00    	jmpq   *0x2032fa(%rip)        # 6040b0 <_GLOBAL_OFFSET_TABLE_+0xb0>
  400db6:	68 13 00 00 00       	pushq  $0x13
  400dbb:	e9 b0 fe ff ff       	jmpq   400c70 <_init+0x28>

0000000000400dc0 <random@plt>:
  400dc0:	ff 25 f2 32 20 00    	jmpq   *0x2032f2(%rip)        # 6040b8 <_GLOBAL_OFFSET_TABLE_+0xb8>
  400dc6:	68 14 00 00 00       	pushq  $0x14
  400dcb:	e9 a0 fe ff ff       	jmpq   400c70 <_init+0x28>

0000000000400dd0 <_IO_getc@plt>:
  400dd0:	ff 25 ea 32 20 00    	jmpq   *0x2032ea(%rip)        # 6040c0 <_GLOBAL_OFFSET_TABLE_+0xc0>
  400dd6:	68 15 00 00 00       	pushq  $0x15
  400ddb:	e9 90 fe ff ff       	jmpq   400c70 <_init+0x28>

0000000000400de0 <__isoc99_sscanf@plt>:
  400de0:	ff 25 e2 32 20 00    	jmpq   *0x2032e2(%rip)        # 6040c8 <_GLOBAL_OFFSET_TABLE_+0xc8>
  400de6:	68 16 00 00 00       	pushq  $0x16
  400deb:	e9 80 fe ff ff       	jmpq   400c70 <_init+0x28>

0000000000400df0 <munmap@plt>:
  400df0:	ff 25 da 32 20 00    	jmpq   *0x2032da(%rip)        # 6040d0 <_GLOBAL_OFFSET_TABLE_+0xd0>
  400df6:	68 17 00 00 00       	pushq  $0x17
  400dfb:	e9 70 fe ff ff       	jmpq   400c70 <_init+0x28>

0000000000400e00 <__printf_chk@plt>:
  400e00:	ff 25 d2 32 20 00    	jmpq   *0x2032d2(%rip)        # 6040d8 <_GLOBAL_OFFSET_TABLE_+0xd8>
  400e06:	68 18 00 00 00       	pushq  $0x18
  400e0b:	e9 60 fe ff ff       	jmpq   400c70 <_init+0x28>

0000000000400e10 <fopen@plt>:
  400e10:	ff 25 ca 32 20 00    	jmpq   *0x2032ca(%rip)        # 6040e0 <_GLOBAL_OFFSET_TABLE_+0xe0>
  400e16:	68 19 00 00 00       	pushq  $0x19
  400e1b:	e9 50 fe ff ff       	jmpq   400c70 <_init+0x28>

0000000000400e20 <getopt@plt>:
  400e20:	ff 25 c2 32 20 00    	jmpq   *0x2032c2(%rip)        # 6040e8 <_GLOBAL_OFFSET_TABLE_+0xe8>
  400e26:	68 1a 00 00 00       	pushq  $0x1a
  400e2b:	e9 40 fe ff ff       	jmpq   400c70 <_init+0x28>

0000000000400e30 <strtoul@plt>:
  400e30:	ff 25 ba 32 20 00    	jmpq   *0x2032ba(%rip)        # 6040f0 <_GLOBAL_OFFSET_TABLE_+0xf0>
  400e36:	68 1b 00 00 00       	pushq  $0x1b
  400e3b:	e9 30 fe ff ff       	jmpq   400c70 <_init+0x28>

0000000000400e40 <gethostname@plt>:
  400e40:	ff 25 b2 32 20 00    	jmpq   *0x2032b2(%rip)        # 6040f8 <_GLOBAL_OFFSET_TABLE_+0xf8>
  400e46:	68 1c 00 00 00       	pushq  $0x1c
  400e4b:	e9 20 fe ff ff       	jmpq   400c70 <_init+0x28>

0000000000400e50 <exit@plt>:
  400e50:	ff 25 aa 32 20 00    	jmpq   *0x2032aa(%rip)        # 604100 <_GLOBAL_OFFSET_TABLE_+0x100>
  400e56:	68 1d 00 00 00       	pushq  $0x1d
  400e5b:	e9 10 fe ff ff       	jmpq   400c70 <_init+0x28>

0000000000400e60 <connect@plt>:
  400e60:	ff 25 a2 32 20 00    	jmpq   *0x2032a2(%rip)        # 604108 <_GLOBAL_OFFSET_TABLE_+0x108>
  400e66:	68 1e 00 00 00       	pushq  $0x1e
  400e6b:	e9 00 fe ff ff       	jmpq   400c70 <_init+0x28>

0000000000400e70 <__fprintf_chk@plt>:
  400e70:	ff 25 9a 32 20 00    	jmpq   *0x20329a(%rip)        # 604110 <_GLOBAL_OFFSET_TABLE_+0x110>
  400e76:	68 1f 00 00 00       	pushq  $0x1f
  400e7b:	e9 f0 fd ff ff       	jmpq   400c70 <_init+0x28>

0000000000400e80 <__sprintf_chk@plt>:
  400e80:	ff 25 92 32 20 00    	jmpq   *0x203292(%rip)        # 604118 <_GLOBAL_OFFSET_TABLE_+0x118>
  400e86:	68 20 00 00 00       	pushq  $0x20
  400e8b:	e9 e0 fd ff ff       	jmpq   400c70 <_init+0x28>

0000000000400e90 <socket@plt>:
  400e90:	ff 25 8a 32 20 00    	jmpq   *0x20328a(%rip)        # 604120 <_GLOBAL_OFFSET_TABLE_+0x120>
  400e96:	68 21 00 00 00       	pushq  $0x21
  400e9b:	e9 d0 fd ff ff       	jmpq   400c70 <_init+0x28>

Disassembly of section .plt.got:

0000000000400ea0 <.plt.got>:
  400ea0:	ff 25 52 31 20 00    	jmpq   *0x203152(%rip)        # 603ff8 <_DYNAMIC+0x1d0>
  400ea6:	66 90                	xchg   %ax,%ax

Disassembly of section .text:

0000000000400eb0 <_start>:
  400eb0:	31 ed                	xor    %ebp,%ebp
  400eb2:	49 89 d1             	mov    %rdx,%r9
  400eb5:	5e                   	pop    %rsi
  400eb6:	48 89 e2             	mov    %rsp,%rdx
  400eb9:	48 83 e4 f0          	and    $0xfffffffffffffff0,%rsp
  400ebd:	50                   	push   %rax
  400ebe:	54                   	push   %rsp
  400ebf:	49 c7 c0 70 2e 40 00 	mov    $0x402e70,%r8
  400ec6:	48 c7 c1 00 2e 40 00 	mov    $0x402e00,%rcx
  400ecd:	48 c7 c7 b5 11 40 00 	mov    $0x4011b5,%rdi
  400ed4:	e8 77 fe ff ff       	callq  400d50 <__libc_start_main@plt>
  400ed9:	f4                   	hlt    
  400eda:	66 0f 1f 44 00 00    	nopw   0x0(%rax,%rax,1)

0000000000400ee0 <deregister_tm_clones>:
  400ee0:	b8 b7 44 60 00       	mov    $0x6044b7,%eax
  400ee5:	55                   	push   %rbp
  400ee6:	48 2d b0 44 60 00    	sub    $0x6044b0,%rax
  400eec:	48 83 f8 0e          	cmp    $0xe,%rax
  400ef0:	48 89 e5             	mov    %rsp,%rbp
  400ef3:	76 1b                	jbe    400f10 <deregister_tm_clones+0x30>
  400ef5:	b8 00 00 00 00       	mov    $0x0,%eax
  400efa:	48 85 c0             	test   %rax,%rax
  400efd:	74 11                	je     400f10 <deregister_tm_clones+0x30>
  400eff:	5d                   	pop    %rbp
  400f00:	bf b0 44 60 00       	mov    $0x6044b0,%edi
  400f05:	ff e0                	jmpq   *%rax
  400f07:	66 0f 1f 84 00 00 00 	nopw   0x0(%rax,%rax,1)
  400f0e:	00 00 
  400f10:	5d                   	pop    %rbp
  400f11:	c3                   	retq   
  400f12:	0f 1f 40 00          	nopl   0x0(%rax)
  400f16:	66 2e 0f 1f 84 00 00 	nopw   %cs:0x0(%rax,%rax,1)
  400f1d:	00 00 00 

0000000000400f20 <register_tm_clones>:
  400f20:	be b0 44 60 00       	mov    $0x6044b0,%esi
  400f25:	55                   	push   %rbp
  400f26:	48 81 ee b0 44 60 00 	sub    $0x6044b0,%rsi
  400f2d:	48 c1 fe 03          	sar    $0x3,%rsi
  400f31:	48 89 e5             	mov    %rsp,%rbp
  400f34:	48 89 f0             	mov    %rsi,%rax
  400f37:	48 c1 e8 3f          	shr    $0x3f,%rax
  400f3b:	48 01 c6             	add    %rax,%rsi
  400f3e:	48 d1 fe             	sar    %rsi
  400f41:	74 15                	je     400f58 <register_tm_clones+0x38>
  400f43:	b8 00 00 00 00       	mov    $0x0,%eax
  400f48:	48 85 c0             	test   %rax,%rax
  400f4b:	74 0b                	je     400f58 <register_tm_clones+0x38>
  400f4d:	5d                   	pop    %rbp
  400f4e:	bf b0 44 60 00       	mov    $0x6044b0,%edi
  400f53:	ff e0                	jmpq   *%rax
  400f55:	0f 1f 00             	nopl   (%rax)
  400f58:	5d                   	pop    %rbp
  400f59:	c3                   	retq   
  400f5a:	66 0f 1f 44 00 00    	nopw   0x0(%rax,%rax,1)

0000000000400f60 <__do_global_dtors_aux>:
  400f60:	80 3d 81 35 20 00 00 	cmpb   $0x0,0x203581(%rip)        # 6044e8 <completed.7594>
  400f67:	75 11                	jne    400f7a <__do_global_dtors_aux+0x1a>
  400f69:	55                   	push   %rbp
  400f6a:	48 89 e5             	mov    %rsp,%rbp
  400f6d:	e8 6e ff ff ff       	callq  400ee0 <deregister_tm_clones>
  400f72:	5d                   	pop    %rbp
  400f73:	c6 05 6e 35 20 00 01 	movb   $0x1,0x20356e(%rip)        # 6044e8 <completed.7594>
  400f7a:	f3 c3                	repz retq 
  400f7c:	0f 1f 40 00          	nopl   0x0(%rax)

0000000000400f80 <frame_dummy>:
  400f80:	bf 20 3e 60 00       	mov    $0x603e20,%edi
  400f85:	48 83 3f 00          	cmpq   $0x0,(%rdi)
  400f89:	75 05                	jne    400f90 <frame_dummy+0x10>
  400f8b:	eb 93                	jmp    400f20 <register_tm_clones>
  400f8d:	0f 1f 00             	nopl   (%rax)
  400f90:	b8 00 00 00 00       	mov    $0x0,%eax
  400f95:	48 85 c0             	test   %rax,%rax
  400f98:	74 f1                	je     400f8b <frame_dummy+0xb>
  400f9a:	55                   	push   %rbp
  400f9b:	48 89 e5             	mov    %rsp,%rbp
  400f9e:	ff d0                	callq  *%rax
  400fa0:	5d                   	pop    %rbp
  400fa1:	e9 7a ff ff ff       	jmpq   400f20 <register_tm_clones>

0000000000400fa6 <usage>:
  400fa6:	48 83 ec 08          	sub    $0x8,%rsp
  400faa:	48 89 fa             	mov    %rdi,%rdx
  400fad:	83 3d 74 35 20 00 00 	cmpl   $0x0,0x203574(%rip)        # 604528 <is_checker>
  400fb4:	74 3e                	je     400ff4 <usage+0x4e>
  400fb6:	be 88 2e 40 00       	mov    $0x402e88,%esi
  400fbb:	bf 01 00 00 00       	mov    $0x1,%edi
  400fc0:	b8 00 00 00 00       	mov    $0x0,%eax
  400fc5:	e8 36 fe ff ff       	callq  400e00 <__printf_chk@plt>
  400fca:	bf c0 2e 40 00       	mov    $0x402ec0,%edi
  400fcf:	e8 fc fc ff ff       	callq  400cd0 <puts@plt>
  400fd4:	bf 38 30 40 00       	mov    $0x403038,%edi
  400fd9:	e8 f2 fc ff ff       	callq  400cd0 <puts@plt>
  400fde:	bf e8 2e 40 00       	mov    $0x402ee8,%edi
  400fe3:	e8 e8 fc ff ff       	callq  400cd0 <puts@plt>
  400fe8:	bf 52 30 40 00       	mov    $0x403052,%edi
  400fed:	e8 de fc ff ff       	callq  400cd0 <puts@plt>
  400ff2:	eb 32                	jmp    401026 <usage+0x80>
  400ff4:	be 6e 30 40 00       	mov    $0x40306e,%esi
  400ff9:	bf 01 00 00 00       	mov    $0x1,%edi
  400ffe:	b8 00 00 00 00       	mov    $0x0,%eax
  401003:	e8 f8 fd ff ff       	callq  400e00 <__printf_chk@plt>
  401008:	bf 10 2f 40 00       	mov    $0x402f10,%edi
  40100d:	e8 be fc ff ff       	callq  400cd0 <puts@plt>
  401012:	bf 38 2f 40 00       	mov    $0x402f38,%edi
  401017:	e8 b4 fc ff ff       	callq  400cd0 <puts@plt>
  40101c:	bf 8c 30 40 00       	mov    $0x40308c,%edi
  401021:	e8 aa fc ff ff       	callq  400cd0 <puts@plt>
  401026:	bf 00 00 00 00       	mov    $0x0,%edi
  40102b:	e8 20 fe ff ff       	callq  400e50 <exit@plt>

0000000000401030 <initialize_target>:
  401030:	55                   	push   %rbp
  401031:	53                   	push   %rbx
  401032:	48 81 ec 18 21 00 00 	sub    $0x2118,%rsp
  401039:	89 f5                	mov    %esi,%ebp
  40103b:	64 48 8b 04 25 28 00 	mov    %fs:0x28,%rax
  401042:	00 00 
  401044:	48 89 84 24 08 21 00 	mov    %rax,0x2108(%rsp)
  40104b:	00 
  40104c:	31 c0                	xor    %eax,%eax
  40104e:	89 3d c4 34 20 00    	mov    %edi,0x2034c4(%rip)        # 604518 <check_level>
  401054:	8b 3d 0e 31 20 00    	mov    0x20310e(%rip),%edi        # 604168 <target_id>
  40105a:	e8 79 1d 00 00       	callq  402dd8 <gencookie>
  40105f:	89 05 bf 34 20 00    	mov    %eax,0x2034bf(%rip)        # 604524 <cookie>
  401065:	89 c7                	mov    %eax,%edi
  401067:	e8 6c 1d 00 00       	callq  402dd8 <gencookie>
  40106c:	89 05 ae 34 20 00    	mov    %eax,0x2034ae(%rip)        # 604520 <authkey>
  401072:	8b 05 f0 30 20 00    	mov    0x2030f0(%rip),%eax        # 604168 <target_id>
  401078:	8d 78 01             	lea    0x1(%rax),%edi
  40107b:	e8 20 fc ff ff       	callq  400ca0 <srandom@plt>
  401080:	e8 3b fd ff ff       	callq  400dc0 <random@plt>
  401085:	89 c7                	mov    %eax,%edi
  401087:	e8 03 03 00 00       	callq  40138f <scramble>
  40108c:	89 c3                	mov    %eax,%ebx
  40108e:	85 ed                	test   %ebp,%ebp
  401090:	74 18                	je     4010aa <initialize_target+0x7a>
  401092:	bf 00 00 00 00       	mov    $0x0,%edi
  401097:	e8 14 fd ff ff       	callq  400db0 <time@plt>
  40109c:	89 c7                	mov    %eax,%edi
  40109e:	e8 fd fb ff ff       	callq  400ca0 <srandom@plt>
  4010a3:	e8 18 fd ff ff       	callq  400dc0 <random@plt>
  4010a8:	eb 05                	jmp    4010af <initialize_target+0x7f>
  4010aa:	b8 00 00 00 00       	mov    $0x0,%eax
  4010af:	01 c3                	add    %eax,%ebx
  4010b1:	0f b7 db             	movzwl %bx,%ebx
  4010b4:	8d 04 dd 00 01 00 00 	lea    0x100(,%rbx,8),%eax
  4010bb:	89 c0                	mov    %eax,%eax
  4010bd:	48 89 05 dc 33 20 00 	mov    %rax,0x2033dc(%rip)        # 6044a0 <buf_offset>
  4010c4:	c6 05 7d 40 20 00 63 	movb   $0x63,0x20407d(%rip)        # 605148 <target_prefix>
  4010cb:	83 3d d6 33 20 00 00 	cmpl   $0x0,0x2033d6(%rip)        # 6044a8 <notify>
  4010d2:	0f 84 bb 00 00 00    	je     401193 <initialize_target+0x163>
  4010d8:	83 3d 49 34 20 00 00 	cmpl   $0x0,0x203449(%rip)        # 604528 <is_checker>
  4010df:	0f 85 ae 00 00 00    	jne    401193 <initialize_target+0x163>
  4010e5:	be 00 01 00 00       	mov    $0x100,%esi
  4010ea:	48 89 e7             	mov    %rsp,%rdi
  4010ed:	e8 4e fd ff ff       	callq  400e40 <gethostname@plt>
  4010f2:	85 c0                	test   %eax,%eax
  4010f4:	74 25                	je     40111b <initialize_target+0xeb>
  4010f6:	bf 68 2f 40 00       	mov    $0x402f68,%edi
  4010fb:	e8 d0 fb ff ff       	callq  400cd0 <puts@plt>
  401100:	bf 08 00 00 00       	mov    $0x8,%edi
  401105:	e8 46 fd ff ff       	callq  400e50 <exit@plt>
  40110a:	48 89 e6             	mov    %rsp,%rsi
  40110d:	e8 6e fb ff ff       	callq  400c80 <strcasecmp@plt>
  401112:	85 c0                	test   %eax,%eax
  401114:	74 21                	je     401137 <initialize_target+0x107>
  401116:	83 c3 01             	add    $0x1,%ebx
  401119:	eb 05                	jmp    401120 <initialize_target+0xf0>
  40111b:	bb 00 00 00 00       	mov    $0x0,%ebx
  401120:	48 63 c3             	movslq %ebx,%rax
  401123:	48 8b 3c c5 80 41 60 	mov    0x604180(,%rax,8),%rdi
  40112a:	00 
  40112b:	48 85 ff             	test   %rdi,%rdi
  40112e:	75 da                	jne    40110a <initialize_target+0xda>
  401130:	b8 00 00 00 00       	mov    $0x0,%eax
  401135:	eb 05                	jmp    40113c <initialize_target+0x10c>
  401137:	b8 01 00 00 00       	mov    $0x1,%eax
  40113c:	85 c0                	test   %eax,%eax
  40113e:	75 1c                	jne    40115c <initialize_target+0x12c>
  401140:	48 89 e2             	mov    %rsp,%rdx
  401143:	be a0 2f 40 00       	mov    $0x402fa0,%esi
  401148:	bf 01 00 00 00       	mov    $0x1,%edi
  40114d:	e8 ae fc ff ff       	callq  400e00 <__printf_chk@plt>
  401152:	bf 08 00 00 00       	mov    $0x8,%edi
  401157:	e8 f4 fc ff ff       	callq  400e50 <exit@plt>
  40115c:	48 8d bc 24 00 01 00 	lea    0x100(%rsp),%rdi
  401163:	00 
  401164:	e8 d9 19 00 00       	callq  402b42 <init_driver>
  401169:	85 c0                	test   %eax,%eax
  40116b:	79 26                	jns    401193 <initialize_target+0x163>
  40116d:	48 8d 94 24 00 01 00 	lea    0x100(%rsp),%rdx
  401174:	00 
  401175:	be e0 2f 40 00       	mov    $0x402fe0,%esi
  40117a:	bf 01 00 00 00       	mov    $0x1,%edi
  40117f:	b8 00 00 00 00       	mov    $0x0,%eax
  401184:	e8 77 fc ff ff       	callq  400e00 <__printf_chk@plt>
  401189:	bf 08 00 00 00       	mov    $0x8,%edi
  40118e:	e8 bd fc ff ff       	callq  400e50 <exit@plt>
  401193:	48 8b 84 24 08 21 00 	mov    0x2108(%rsp),%rax
  40119a:	00 
  40119b:	64 48 33 04 25 28 00 	xor    %fs:0x28,%rax
  4011a2:	00 00 
  4011a4:	74 05                	je     4011ab <initialize_target+0x17b>
  4011a6:	e8 45 fb ff ff       	callq  400cf0 <__stack_chk_fail@plt>
  4011ab:	48 81 c4 18 21 00 00 	add    $0x2118,%rsp
  4011b2:	5b                   	pop    %rbx
  4011b3:	5d                   	pop    %rbp
  4011b4:	c3                   	retq   

00000000004011b5 <main>:
  4011b5:	41 56                	push   %r14
  4011b7:	41 55                	push   %r13
  4011b9:	41 54                	push   %r12
  4011bb:	55                   	push   %rbp
  4011bc:	53                   	push   %rbx
  4011bd:	41 89 fc             	mov    %edi,%r12d
  4011c0:	48 89 f3             	mov    %rsi,%rbx
  4011c3:	be 7d 1e 40 00       	mov    $0x401e7d,%esi
  4011c8:	bf 0b 00 00 00       	mov    $0xb,%edi
  4011cd:	e8 8e fb ff ff       	callq  400d60 <signal@plt>
  4011d2:	be 2f 1e 40 00       	mov    $0x401e2f,%esi
  4011d7:	bf 07 00 00 00       	mov    $0x7,%edi
  4011dc:	e8 7f fb ff ff       	callq  400d60 <signal@plt>
  4011e1:	be cb 1e 40 00       	mov    $0x401ecb,%esi
  4011e6:	bf 04 00 00 00       	mov    $0x4,%edi
  4011eb:	e8 70 fb ff ff       	callq  400d60 <signal@plt>
  4011f0:	83 3d 31 33 20 00 00 	cmpl   $0x0,0x203331(%rip)        # 604528 <is_checker>
  4011f7:	74 20                	je     401219 <main+0x64>
  4011f9:	be 19 1f 40 00       	mov    $0x401f19,%esi
  4011fe:	bf 0e 00 00 00       	mov    $0xe,%edi
  401203:	e8 58 fb ff ff       	callq  400d60 <signal@plt>
  401208:	bf 05 00 00 00       	mov    $0x5,%edi
  40120d:	e8 0e fb ff ff       	callq  400d20 <alarm@plt>
  401212:	bd aa 30 40 00       	mov    $0x4030aa,%ebp
  401217:	eb 05                	jmp    40121e <main+0x69>
  401219:	bd a5 30 40 00       	mov    $0x4030a5,%ebp
  40121e:	48 8b 05 9b 32 20 00 	mov    0x20329b(%rip),%rax        # 6044c0 <stdin@@GLIBC_2.2.5>
  401225:	48 89 05 e4 32 20 00 	mov    %rax,0x2032e4(%rip)        # 604510 <infile>
  40122c:	41 bd 00 00 00 00    	mov    $0x0,%r13d
  401232:	41 be 00 00 00 00    	mov    $0x0,%r14d
  401238:	e9 c6 00 00 00       	jmpq   401303 <main+0x14e>
  40123d:	83 e8 61             	sub    $0x61,%eax
  401240:	3c 10                	cmp    $0x10,%al
  401242:	0f 87 9c 00 00 00    	ja     4012e4 <main+0x12f>
  401248:	0f b6 c0             	movzbl %al,%eax
  40124b:	ff 24 c5 f0 30 40 00 	jmpq   *0x4030f0(,%rax,8)
  401252:	48 8b 3b             	mov    (%rbx),%rdi
  401255:	e8 4c fd ff ff       	callq  400fa6 <usage>
  40125a:	be 5d 33 40 00       	mov    $0x40335d,%esi
  40125f:	48 8b 3d 62 32 20 00 	mov    0x203262(%rip),%rdi        # 6044c8 <optarg@@GLIBC_2.2.5>
  401266:	e8 a5 fb ff ff       	callq  400e10 <fopen@plt>
  40126b:	48 89 05 9e 32 20 00 	mov    %rax,0x20329e(%rip)        # 604510 <infile>
  401272:	48 85 c0             	test   %rax,%rax
  401275:	0f 85 88 00 00 00    	jne    401303 <main+0x14e>
  40127b:	48 8b 0d 46 32 20 00 	mov    0x203246(%rip),%rcx        # 6044c8 <optarg@@GLIBC_2.2.5>
  401282:	ba b2 30 40 00       	mov    $0x4030b2,%edx
  401287:	be 01 00 00 00       	mov    $0x1,%esi
  40128c:	48 8b 3d 4d 32 20 00 	mov    0x20324d(%rip),%rdi        # 6044e0 <stderr@@GLIBC_2.2.5>
  401293:	e8 d8 fb ff ff       	callq  400e70 <__fprintf_chk@plt>
  401298:	b8 01 00 00 00       	mov    $0x1,%eax
  40129d:	e9 e4 00 00 00       	jmpq   401386 <main+0x1d1>
  4012a2:	ba 10 00 00 00       	mov    $0x10,%edx
  4012a7:	be 00 00 00 00       	mov    $0x0,%esi
  4012ac:	48 8b 3d 15 32 20 00 	mov    0x203215(%rip),%rdi        # 6044c8 <optarg@@GLIBC_2.2.5>
  4012b3:	e8 78 fb ff ff       	callq  400e30 <strtoul@plt>
  4012b8:	41 89 c6             	mov    %eax,%r14d
  4012bb:	eb 46                	jmp    401303 <main+0x14e>
  4012bd:	ba 0a 00 00 00       	mov    $0xa,%edx
  4012c2:	be 00 00 00 00       	mov    $0x0,%esi
  4012c7:	48 8b 3d fa 31 20 00 	mov    0x2031fa(%rip),%rdi        # 6044c8 <optarg@@GLIBC_2.2.5>
  4012ce:	e8 bd fa ff ff       	callq  400d90 <strtol@plt>
  4012d3:	41 89 c5             	mov    %eax,%r13d
  4012d6:	eb 2b                	jmp    401303 <main+0x14e>
  4012d8:	c7 05 c6 31 20 00 00 	movl   $0x0,0x2031c6(%rip)        # 6044a8 <notify>
  4012df:	00 00 00 
  4012e2:	eb 1f                	jmp    401303 <main+0x14e>
  4012e4:	0f be d2             	movsbl %dl,%edx
  4012e7:	be cf 30 40 00       	mov    $0x4030cf,%esi
  4012ec:	bf 01 00 00 00       	mov    $0x1,%edi
  4012f1:	b8 00 00 00 00       	mov    $0x0,%eax
  4012f6:	e8 05 fb ff ff       	callq  400e00 <__printf_chk@plt>
  4012fb:	48 8b 3b             	mov    (%rbx),%rdi
  4012fe:	e8 a3 fc ff ff       	callq  400fa6 <usage>
  401303:	48 89 ea             	mov    %rbp,%rdx
  401306:	48 89 de             	mov    %rbx,%rsi
  401309:	44 89 e7             	mov    %r12d,%edi
  40130c:	e8 0f fb ff ff       	callq  400e20 <getopt@plt>
  401311:	89 c2                	mov    %eax,%edx
  401313:	3c ff                	cmp    $0xff,%al
  401315:	0f 85 22 ff ff ff    	jne    40123d <main+0x88>
  40131b:	be 00 00 00 00       	mov    $0x0,%esi
  401320:	44 89 ef             	mov    %r13d,%edi
  401323:	e8 08 fd ff ff       	callq  401030 <initialize_target>
  401328:	83 3d f9 31 20 00 00 	cmpl   $0x0,0x2031f9(%rip)        # 604528 <is_checker>
  40132f:	74 2a                	je     40135b <main+0x1a6>
  401331:	44 3b 35 e8 31 20 00 	cmp    0x2031e8(%rip),%r14d        # 604520 <authkey>
  401338:	74 21                	je     40135b <main+0x1a6>
  40133a:	44 89 f2             	mov    %r14d,%edx
  40133d:	be 08 30 40 00       	mov    $0x403008,%esi
  401342:	bf 01 00 00 00       	mov    $0x1,%edi
  401347:	b8 00 00 00 00       	mov    $0x0,%eax
  40134c:	e8 af fa ff ff       	callq  400e00 <__printf_chk@plt>
  401351:	b8 00 00 00 00       	mov    $0x0,%eax
  401356:	e8 70 07 00 00       	callq  401acb <check_fail>
  40135b:	8b 15 c3 31 20 00    	mov    0x2031c3(%rip),%edx        # 604524 <cookie>
  401361:	be e2 30 40 00       	mov    $0x4030e2,%esi
  401366:	bf 01 00 00 00       	mov    $0x1,%edi
  40136b:	b8 00 00 00 00       	mov    $0x0,%eax
  401370:	e8 8b fa ff ff       	callq  400e00 <__printf_chk@plt>
  401375:	48 8b 3d 24 31 20 00 	mov    0x203124(%rip),%rdi        # 6044a0 <buf_offset>
  40137c:	e8 98 0c 00 00       	callq  402019 <stable_launch>
  401381:	b8 00 00 00 00       	mov    $0x0,%eax
  401386:	5b                   	pop    %rbx
  401387:	5d                   	pop    %rbp
  401388:	41 5c                	pop    %r12
  40138a:	41 5d                	pop    %r13
  40138c:	41 5e                	pop    %r14
  40138e:	c3                   	retq   

000000000040138f <scramble>:
  40138f:	48 83 ec 38          	sub    $0x38,%rsp
  401393:	64 48 8b 04 25 28 00 	mov    %fs:0x28,%rax
  40139a:	00 00 
  40139c:	48 89 44 24 28       	mov    %rax,0x28(%rsp)
  4013a1:	31 c0                	xor    %eax,%eax
  4013a3:	eb 10                	jmp    4013b5 <scramble+0x26>
  4013a5:	69 d0 c8 2d 00 00    	imul   $0x2dc8,%eax,%edx
  4013ab:	01 fa                	add    %edi,%edx
  4013ad:	89 c1                	mov    %eax,%ecx
  4013af:	89 14 8c             	mov    %edx,(%rsp,%rcx,4)
  4013b2:	83 c0 01             	add    $0x1,%eax
  4013b5:	83 f8 09             	cmp    $0x9,%eax
  4013b8:	76 eb                	jbe    4013a5 <scramble+0x16>
  4013ba:	8b 44 24 20          	mov    0x20(%rsp),%eax
  4013be:	69 c0 37 4a 00 00    	imul   $0x4a37,%eax,%eax
  4013c4:	89 44 24 20          	mov    %eax,0x20(%rsp)
  4013c8:	8b 44 24 24          	mov    0x24(%rsp),%eax
  4013cc:	69 c0 b1 dd 00 00    	imul   $0xddb1,%eax,%eax
  4013d2:	89 44 24 24          	mov    %eax,0x24(%rsp)
  4013d6:	8b 44 24 10          	mov    0x10(%rsp),%eax
  4013da:	69 c0 f3 4c 00 00    	imul   $0x4cf3,%eax,%eax
  4013e0:	89 44 24 10          	mov    %eax,0x10(%rsp)
  4013e4:	8b 44 24 08          	mov    0x8(%rsp),%eax
  4013e8:	69 c0 0c a5 00 00    	imul   $0xa50c,%eax,%eax
  4013ee:	89 44 24 08          	mov    %eax,0x8(%rsp)
  4013f2:	8b 44 24 1c          	mov    0x1c(%rsp),%eax
  4013f6:	69 c0 39 66 00 00    	imul   $0x6639,%eax,%eax
  4013fc:	89 44 24 1c          	mov    %eax,0x1c(%rsp)
  401400:	8b 44 24 08          	mov    0x8(%rsp),%eax
  401404:	69 c0 5a 42 00 00    	imul   $0x425a,%eax,%eax
  40140a:	89 44 24 08          	mov    %eax,0x8(%rsp)
  40140e:	8b 44 24 1c          	mov    0x1c(%rsp),%eax
  401412:	69 c0 db cd 00 00    	imul   $0xcddb,%eax,%eax
  401418:	89 44 24 1c          	mov    %eax,0x1c(%rsp)
  40141c:	8b 44 24 24          	mov    0x24(%rsp),%eax
  401420:	69 c0 79 dc 00 00    	imul   $0xdc79,%eax,%eax
  401426:	89 44 24 24          	mov    %eax,0x24(%rsp)
  40142a:	8b 44 24 14          	mov    0x14(%rsp),%eax
  40142e:	69 c0 f0 10 00 00    	imul   $0x10f0,%eax,%eax
  401434:	89 44 24 14          	mov    %eax,0x14(%rsp)
  401438:	8b 44 24 08          	mov    0x8(%rsp),%eax
  40143c:	69 c0 ee 67 00 00    	imul   $0x67ee,%eax,%eax
  401442:	89 44 24 08          	mov    %eax,0x8(%rsp)
  401446:	8b 44 24 18          	mov    0x18(%rsp),%eax
  40144a:	69 c0 42 3e 00 00    	imul   $0x3e42,%eax,%eax
  401450:	89 44 24 18          	mov    %eax,0x18(%rsp)
  401454:	8b 44 24 0c          	mov    0xc(%rsp),%eax
  401458:	69 c0 f3 c6 00 00    	imul   $0xc6f3,%eax,%eax
  40145e:	89 44 24 0c          	mov    %eax,0xc(%rsp)
  401462:	8b 44 24 10          	mov    0x10(%rsp),%eax
  401466:	69 c0 60 2c 00 00    	imul   $0x2c60,%eax,%eax
  40146c:	89 44 24 10          	mov    %eax,0x10(%rsp)
  401470:	8b 44 24 18          	mov    0x18(%rsp),%eax
  401474:	69 c0 1a 45 00 00    	imul   $0x451a,%eax,%eax
  40147a:	89 44 24 18          	mov    %eax,0x18(%rsp)
  40147e:	8b 44 24 0c          	mov    0xc(%rsp),%eax
  401482:	69 c0 7d f8 00 00    	imul   $0xf87d,%eax,%eax
  401488:	89 44 24 0c          	mov    %eax,0xc(%rsp)
  40148c:	8b 04 24             	mov    (%rsp),%eax
  40148f:	69 c0 b0 52 00 00    	imul   $0x52b0,%eax,%eax
  401495:	89 04 24             	mov    %eax,(%rsp)
  401498:	8b 44 24 04          	mov    0x4(%rsp),%eax
  40149c:	69 c0 59 cf 00 00    	imul   $0xcf59,%eax,%eax
  4014a2:	89 44 24 04          	mov    %eax,0x4(%rsp)
  4014a6:	8b 04 24             	mov    (%rsp),%eax
  4014a9:	69 c0 29 99 00 00    	imul   $0x9929,%eax,%eax
  4014af:	89 04 24             	mov    %eax,(%rsp)
  4014b2:	8b 44 24 0c          	mov    0xc(%rsp),%eax
  4014b6:	69 c0 a3 19 00 00    	imul   $0x19a3,%eax,%eax
  4014bc:	89 44 24 0c          	mov    %eax,0xc(%rsp)
  4014c0:	8b 44 24 04          	mov    0x4(%rsp),%eax
  4014c4:	69 c0 69 90 00 00    	imul   $0x9069,%eax,%eax
  4014ca:	89 44 24 04          	mov    %eax,0x4(%rsp)
  4014ce:	8b 44 24 0c          	mov    0xc(%rsp),%eax
  4014d2:	69 c0 5c ca 00 00    	imul   $0xca5c,%eax,%eax
  4014d8:	89 44 24 0c          	mov    %eax,0xc(%rsp)
  4014dc:	8b 44 24 24          	mov    0x24(%rsp),%eax
  4014e0:	69 c0 29 b1 00 00    	imul   $0xb129,%eax,%eax
  4014e6:	89 44 24 24          	mov    %eax,0x24(%rsp)
  4014ea:	8b 44 24 10          	mov    0x10(%rsp),%eax
  4014ee:	69 c0 f2 db 00 00    	imul   $0xdbf2,%eax,%eax
  4014f4:	89 44 24 10          	mov    %eax,0x10(%rsp)
  4014f8:	8b 44 24 14          	mov    0x14(%rsp),%eax
  4014fc:	69 c0 a9 c1 00 00    	imul   $0xc1a9,%eax,%eax
  401502:	89 44 24 14          	mov    %eax,0x14(%rsp)
  401506:	8b 44 24 14          	mov    0x14(%rsp),%eax
  40150a:	69 c0 f5 b0 00 00    	imul   $0xb0f5,%eax,%eax
  401510:	89 44 24 14          	mov    %eax,0x14(%rsp)
  401514:	8b 44 24 1c          	mov    0x1c(%rsp),%eax
  401518:	69 c0 13 26 00 00    	imul   $0x2613,%eax,%eax
  40151e:	89 44 24 1c          	mov    %eax,0x1c(%rsp)
  401522:	8b 44 24 20          	mov    0x20(%rsp),%eax
  401526:	69 c0 1f c2 00 00    	imul   $0xc21f,%eax,%eax
  40152c:	89 44 24 20          	mov    %eax,0x20(%rsp)
  401530:	8b 44 24 04          	mov    0x4(%rsp),%eax
  401534:	69 c0 18 08 00 00    	imul   $0x818,%eax,%eax
  40153a:	89 44 24 04          	mov    %eax,0x4(%rsp)
  40153e:	8b 44 24 08          	mov    0x8(%rsp),%eax
  401542:	69 c0 e8 79 00 00    	imul   $0x79e8,%eax,%eax
  401548:	89 44 24 08          	mov    %eax,0x8(%rsp)
  40154c:	8b 44 24 0c          	mov    0xc(%rsp),%eax
  401550:	69 c0 67 13 00 00    	imul   $0x1367,%eax,%eax
  401556:	89 44 24 0c          	mov    %eax,0xc(%rsp)
  40155a:	8b 44 24 24          	mov    0x24(%rsp),%eax
  40155e:	69 c0 2d 29 00 00    	imul   $0x292d,%eax,%eax
  401564:	89 44 24 24          	mov    %eax,0x24(%rsp)
  401568:	8b 44 24 24          	mov    0x24(%rsp),%eax
  40156c:	69 c0 19 b5 00 00    	imul   $0xb519,%eax,%eax
  401572:	89 44 24 24          	mov    %eax,0x24(%rsp)
  401576:	8b 44 24 14          	mov    0x14(%rsp),%eax
  40157a:	69 c0 79 96 00 00    	imul   $0x9679,%eax,%eax
  401580:	89 44 24 14          	mov    %eax,0x14(%rsp)
  401584:	8b 44 24 20          	mov    0x20(%rsp),%eax
  401588:	69 c0 d3 14 00 00    	imul   $0x14d3,%eax,%eax
  40158e:	89 44 24 20          	mov    %eax,0x20(%rsp)
  401592:	8b 44 24 18          	mov    0x18(%rsp),%eax
  401596:	69 c0 78 8c 00 00    	imul   $0x8c78,%eax,%eax
  40159c:	89 44 24 18          	mov    %eax,0x18(%rsp)
  4015a0:	8b 44 24 24          	mov    0x24(%rsp),%eax
  4015a4:	69 c0 f9 2f 00 00    	imul   $0x2ff9,%eax,%eax
  4015aa:	89 44 24 24          	mov    %eax,0x24(%rsp)
  4015ae:	8b 44 24 10          	mov    0x10(%rsp),%eax
  4015b2:	69 c0 ff 77 00 00    	imul   $0x77ff,%eax,%eax
  4015b8:	89 44 24 10          	mov    %eax,0x10(%rsp)
  4015bc:	8b 44 24 08          	mov    0x8(%rsp),%eax
  4015c0:	69 c0 0c ef 00 00    	imul   $0xef0c,%eax,%eax
  4015c6:	89 44 24 08          	mov    %eax,0x8(%rsp)
  4015ca:	8b 44 24 04          	mov    0x4(%rsp),%eax
  4015ce:	69 c0 c4 6e 00 00    	imul   $0x6ec4,%eax,%eax
  4015d4:	89 44 24 04          	mov    %eax,0x4(%rsp)
  4015d8:	8b 44 24 04          	mov    0x4(%rsp),%eax
  4015dc:	69 c0 d5 40 00 00    	imul   $0x40d5,%eax,%eax
  4015e2:	89 44 24 04          	mov    %eax,0x4(%rsp)
  4015e6:	8b 44 24 18          	mov    0x18(%rsp),%eax
  4015ea:	69 c0 4c da 00 00    	imul   $0xda4c,%eax,%eax
  4015f0:	89 44 24 18          	mov    %eax,0x18(%rsp)
  4015f4:	8b 44 24 04          	mov    0x4(%rsp),%eax
  4015f8:	69 c0 f1 0e 00 00    	imul   $0xef1,%eax,%eax
  4015fe:	89 44 24 04          	mov    %eax,0x4(%rsp)
  401602:	8b 44 24 14          	mov    0x14(%rsp),%eax
  401606:	69 c0 ee 53 00 00    	imul   $0x53ee,%eax,%eax
  40160c:	89 44 24 14          	mov    %eax,0x14(%rsp)
  401610:	8b 04 24             	mov    (%rsp),%eax
  401613:	69 c0 eb 8a 00 00    	imul   $0x8aeb,%eax,%eax
  401619:	89 04 24             	mov    %eax,(%rsp)
  40161c:	8b 44 24 08          	mov    0x8(%rsp),%eax
  401620:	69 c0 3c 64 00 00    	imul   $0x643c,%eax,%eax
  401626:	89 44 24 08          	mov    %eax,0x8(%rsp)
  40162a:	8b 44 24 0c          	mov    0xc(%rsp),%eax
  40162e:	69 c0 3b 40 00 00    	imul   $0x403b,%eax,%eax
  401634:	89 44 24 0c          	mov    %eax,0xc(%rsp)
  401638:	8b 44 24 20          	mov    0x20(%rsp),%eax
  40163c:	69 c0 6a 04 00 00    	imul   $0x46a,%eax,%eax
  401642:	89 44 24 20          	mov    %eax,0x20(%rsp)
  401646:	8b 44 24 14          	mov    0x14(%rsp),%eax
  40164a:	69 c0 f0 85 00 00    	imul   $0x85f0,%eax,%eax
  401650:	89 44 24 14          	mov    %eax,0x14(%rsp)
  401654:	8b 44 24 10          	mov    0x10(%rsp),%eax
  401658:	69 c0 97 43 00 00    	imul   $0x4397,%eax,%eax
  40165e:	89 44 24 10          	mov    %eax,0x10(%rsp)
  401662:	8b 44 24 10          	mov    0x10(%rsp),%eax
  401666:	69 c0 ff 4a 00 00    	imul   $0x4aff,%eax,%eax
  40166c:	89 44 24 10          	mov    %eax,0x10(%rsp)
  401670:	8b 44 24 14          	mov    0x14(%rsp),%eax
  401674:	c1 e0 0e             	shl    $0xe,%eax
  401677:	89 44 24 14          	mov    %eax,0x14(%rsp)
  40167b:	8b 44 24 08          	mov    0x8(%rsp),%eax
  40167f:	69 c0 e5 26 00 00    	imul   $0x26e5,%eax,%eax
  401685:	89 44 24 08          	mov    %eax,0x8(%rsp)
  401689:	8b 44 24 14          	mov    0x14(%rsp),%eax
  40168d:	69 c0 1b 5c 00 00    	imul   $0x5c1b,%eax,%eax
  401693:	89 44 24 14          	mov    %eax,0x14(%rsp)
  401697:	8b 44 24 10          	mov    0x10(%rsp),%eax
  40169b:	69 c0 f2 0b 00 00    	imul   $0xbf2,%eax,%eax
  4016a1:	89 44 24 10          	mov    %eax,0x10(%rsp)
  4016a5:	8b 44 24 14          	mov    0x14(%rsp),%eax
  4016a9:	69 c0 a7 c6 00 00    	imul   $0xc6a7,%eax,%eax
  4016af:	89 44 24 14          	mov    %eax,0x14(%rsp)
  4016b3:	8b 44 24 24          	mov    0x24(%rsp),%eax
  4016b7:	69 c0 99 ea 00 00    	imul   $0xea99,%eax,%eax
  4016bd:	89 44 24 24          	mov    %eax,0x24(%rsp)
  4016c1:	8b 44 24 20          	mov    0x20(%rsp),%eax
  4016c5:	69 c0 af b3 00 00    	imul   $0xb3af,%eax,%eax
  4016cb:	89 44 24 20          	mov    %eax,0x20(%rsp)
  4016cf:	8b 44 24 24          	mov    0x24(%rsp),%eax
  4016d3:	69 c0 5f 3d 00 00    	imul   $0x3d5f,%eax,%eax
  4016d9:	89 44 24 24          	mov    %eax,0x24(%rsp)
  4016dd:	8b 44 24 18          	mov    0x18(%rsp),%eax
  4016e1:	69 c0 94 10 00 00    	imul   $0x1094,%eax,%eax
  4016e7:	89 44 24 18          	mov    %eax,0x18(%rsp)
  4016eb:	8b 44 24 10          	mov    0x10(%rsp),%eax
  4016ef:	69 c0 73 d5 00 00    	imul   $0xd573,%eax,%eax
  4016f5:	89 44 24 10          	mov    %eax,0x10(%rsp)
  4016f9:	8b 44 24 18          	mov    0x18(%rsp),%eax
  4016fd:	69 c0 9c 66 00 00    	imul   $0x669c,%eax,%eax
  401703:	89 44 24 18          	mov    %eax,0x18(%rsp)
  401707:	8b 44 24 10          	mov    0x10(%rsp),%eax
  40170b:	69 c0 39 02 00 00    	imul   $0x239,%eax,%eax
  401711:	89 44 24 10          	mov    %eax,0x10(%rsp)
  401715:	8b 44 24 08          	mov    0x8(%rsp),%eax
  401719:	69 c0 02 0b 00 00    	imul   $0xb02,%eax,%eax
  40171f:	89 44 24 08          	mov    %eax,0x8(%rsp)
  401723:	8b 04 24             	mov    (%rsp),%eax
  401726:	69 c0 e9 05 00 00    	imul   $0x5e9,%eax,%eax
  40172c:	89 04 24             	mov    %eax,(%rsp)
  40172f:	8b 44 24 14          	mov    0x14(%rsp),%eax
  401733:	69 c0 ee 22 00 00    	imul   $0x22ee,%eax,%eax
  401739:	89 44 24 14          	mov    %eax,0x14(%rsp)
  40173d:	8b 04 24             	mov    (%rsp),%eax
  401740:	69 c0 aa 1e 00 00    	imul   $0x1eaa,%eax,%eax
  401746:	89 04 24             	mov    %eax,(%rsp)
  401749:	8b 44 24 04          	mov    0x4(%rsp),%eax
  40174d:	69 c0 e2 cb 00 00    	imul   $0xcbe2,%eax,%eax
  401753:	89 44 24 04          	mov    %eax,0x4(%rsp)
  401757:	8b 44 24 14          	mov    0x14(%rsp),%eax
  40175b:	69 c0 ee 1a 00 00    	imul   $0x1aee,%eax,%eax
  401761:	89 44 24 14          	mov    %eax,0x14(%rsp)
  401765:	8b 04 24             	mov    (%rsp),%eax
  401768:	69 c0 80 5b 00 00    	imul   $0x5b80,%eax,%eax
  40176e:	89 04 24             	mov    %eax,(%rsp)
  401771:	8b 44 24 24          	mov    0x24(%rsp),%eax
  401775:	69 c0 dd f2 00 00    	imul   $0xf2dd,%eax,%eax
  40177b:	89 44 24 24          	mov    %eax,0x24(%rsp)
  40177f:	8b 44 24 1c          	mov    0x1c(%rsp),%eax
  401783:	69 c0 a7 73 00 00    	imul   $0x73a7,%eax,%eax
  401789:	89 44 24 1c          	mov    %eax,0x1c(%rsp)
  40178d:	8b 44 24 08          	mov    0x8(%rsp),%eax
  401791:	69 c0 1b c3 00 00    	imul   $0xc31b,%eax,%eax
  401797:	89 44 24 08          	mov    %eax,0x8(%rsp)
  40179b:	8b 44 24 08          	mov    0x8(%rsp),%eax
  40179f:	69 c0 01 d7 00 00    	imul   $0xd701,%eax,%eax
  4017a5:	89 44 24 08          	mov    %eax,0x8(%rsp)
  4017a9:	8b 44 24 0c          	mov    0xc(%rsp),%eax
  4017ad:	69 c0 f3 2e 00 00    	imul   $0x2ef3,%eax,%eax
  4017b3:	89 44 24 0c          	mov    %eax,0xc(%rsp)
  4017b7:	8b 44 24 10          	mov    0x10(%rsp),%eax
  4017bb:	69 c0 c4 c8 00 00    	imul   $0xc8c4,%eax,%eax
  4017c1:	89 44 24 10          	mov    %eax,0x10(%rsp)
  4017c5:	8b 04 24             	mov    (%rsp),%eax
  4017c8:	69 c0 65 5c 00 00    	imul   $0x5c65,%eax,%eax
  4017ce:	89 04 24             	mov    %eax,(%rsp)
  4017d1:	8b 44 24 1c          	mov    0x1c(%rsp),%eax
  4017d5:	69 c0 14 1a 00 00    	imul   $0x1a14,%eax,%eax
  4017db:	89 44 24 1c          	mov    %eax,0x1c(%rsp)
  4017df:	8b 44 24 1c          	mov    0x1c(%rsp),%eax
  4017e3:	69 c0 67 9a 00 00    	imul   $0x9a67,%eax,%eax
  4017e9:	89 44 24 1c          	mov    %eax,0x1c(%rsp)
  4017ed:	8b 44 24 18          	mov    0x18(%rsp),%eax
  4017f1:	69 c0 c9 e6 00 00    	imul   $0xe6c9,%eax,%eax
  4017f7:	89 44 24 18          	mov    %eax,0x18(%rsp)
  4017fb:	8b 44 24 04          	mov    0x4(%rsp),%eax
  4017ff:	69 c0 b1 73 00 00    	imul   $0x73b1,%eax,%eax
  401805:	89 44 24 04          	mov    %eax,0x4(%rsp)
  401809:	8b 44 24 14          	mov    0x14(%rsp),%eax
  40180d:	69 c0 39 f1 00 00    	imul   $0xf139,%eax,%eax
  401813:	89 44 24 14          	mov    %eax,0x14(%rsp)
  401817:	8b 44 24 14          	mov    0x14(%rsp),%eax
  40181b:	69 c0 a5 6c 00 00    	imul   $0x6ca5,%eax,%eax
  401821:	89 44 24 14          	mov    %eax,0x14(%rsp)
  401825:	8b 44 24 20          	mov    0x20(%rsp),%eax
  401829:	69 c0 ea d7 00 00    	imul   $0xd7ea,%eax,%eax
  40182f:	89 44 24 20          	mov    %eax,0x20(%rsp)
  401833:	8b 44 24 18          	mov    0x18(%rsp),%eax
  401837:	69 c0 19 e5 00 00    	imul   $0xe519,%eax,%eax
  40183d:	89 44 24 18          	mov    %eax,0x18(%rsp)
  401841:	ba 00 00 00 00       	mov    $0x0,%edx
  401846:	b8 00 00 00 00       	mov    $0x0,%eax
  40184b:	eb 0a                	jmp    401857 <scramble+0x4c8>
  40184d:	89 d1                	mov    %edx,%ecx
  40184f:	8b 0c 8c             	mov    (%rsp,%rcx,4),%ecx
  401852:	01 c8                	add    %ecx,%eax
  401854:	83 c2 01             	add    $0x1,%edx
  401857:	83 fa 09             	cmp    $0x9,%edx
  40185a:	76 f1                	jbe    40184d <scramble+0x4be>
  40185c:	48 8b 74 24 28       	mov    0x28(%rsp),%rsi
  401861:	64 48 33 34 25 28 00 	xor    %fs:0x28,%rsi
  401868:	00 00 
  40186a:	74 05                	je     401871 <scramble+0x4e2>
  40186c:	e8 7f f4 ff ff       	callq  400cf0 <__stack_chk_fail@plt>
  401871:	48 83 c4 38          	add    $0x38,%rsp
  401875:	c3                   	retq   

0000000000401876 <getbuf>:
  401876:	48 83 ec 18          	sub    $0x18,%rsp
  40187a:	48 89 e7             	mov    %rsp,%rdi
  40187d:	e8 7e 02 00 00       	callq  401b00 <Gets>
  401882:	b8 01 00 00 00       	mov    $0x1,%eax
  401887:	48 83 c4 18          	add    $0x18,%rsp
  40188b:	c3                   	retq   

000000000040188c <touch1>:
  40188c:	48 83 ec 08          	sub    $0x8,%rsp
  401890:	c7 05 82 2c 20 00 01 	movl   $0x1,0x202c82(%rip)        # 60451c <vlevel>
  401897:	00 00 00 
  40189a:	bf b1 31 40 00       	mov    $0x4031b1,%edi
  40189f:	e8 2c f4 ff ff       	callq  400cd0 <puts@plt>
  4018a4:	bf 01 00 00 00       	mov    $0x1,%edi
  4018a9:	e8 97 04 00 00       	callq  401d45 <validate>
  4018ae:	bf 00 00 00 00       	mov    $0x0,%edi
  4018b3:	e8 98 f5 ff ff       	callq  400e50 <exit@plt>

00000000004018b8 <touch2>:
  4018b8:	48 83 ec 08          	sub    $0x8,%rsp
  4018bc:	89 fa                	mov    %edi,%edx
  4018be:	c7 05 54 2c 20 00 02 	movl   $0x2,0x202c54(%rip)        # 60451c <vlevel>
  4018c5:	00 00 00 
  4018c8:	39 3d 56 2c 20 00    	cmp    %edi,0x202c56(%rip)        # 604524 <cookie>
  4018ce:	75 20                	jne    4018f0 <touch2+0x38>
  4018d0:	be d8 31 40 00       	mov    $0x4031d8,%esi
  4018d5:	bf 01 00 00 00       	mov    $0x1,%edi
  4018da:	b8 00 00 00 00       	mov    $0x0,%eax
  4018df:	e8 1c f5 ff ff       	callq  400e00 <__printf_chk@plt>
  4018e4:	bf 02 00 00 00       	mov    $0x2,%edi
  4018e9:	e8 57 04 00 00       	callq  401d45 <validate>
  4018ee:	eb 1e                	jmp    40190e <touch2+0x56>
  4018f0:	be 00 32 40 00       	mov    $0x403200,%esi
  4018f5:	bf 01 00 00 00       	mov    $0x1,%edi
  4018fa:	b8 00 00 00 00       	mov    $0x0,%eax
  4018ff:	e8 fc f4 ff ff       	callq  400e00 <__printf_chk@plt>
  401904:	bf 02 00 00 00       	mov    $0x2,%edi
  401909:	e8 f9 04 00 00       	callq  401e07 <fail>
  40190e:	bf 00 00 00 00       	mov    $0x0,%edi
  401913:	e8 38 f5 ff ff       	callq  400e50 <exit@plt>

0000000000401918 <hexmatch>:
  401918:	41 54                	push   %r12
  40191a:	55                   	push   %rbp
  40191b:	53                   	push   %rbx
  40191c:	48 83 c4 80          	add    $0xffffffffffffff80,%rsp
  401920:	89 fd                	mov    %edi,%ebp
  401922:	48 89 f3             	mov    %rsi,%rbx
  401925:	64 48 8b 04 25 28 00 	mov    %fs:0x28,%rax
  40192c:	00 00 
  40192e:	48 89 44 24 78       	mov    %rax,0x78(%rsp)
  401933:	31 c0                	xor    %eax,%eax
  401935:	e8 86 f4 ff ff       	callq  400dc0 <random@plt>
  40193a:	48 89 c1             	mov    %rax,%rcx
  40193d:	48 ba 0b d7 a3 70 3d 	movabs $0xa3d70a3d70a3d70b,%rdx
  401944:	0a d7 a3 
  401947:	48 f7 ea             	imul   %rdx
  40194a:	48 01 ca             	add    %rcx,%rdx
  40194d:	48 c1 fa 06          	sar    $0x6,%rdx
  401951:	48 89 c8             	mov    %rcx,%rax
  401954:	48 c1 f8 3f          	sar    $0x3f,%rax
  401958:	48 29 c2             	sub    %rax,%rdx
  40195b:	48 8d 04 92          	lea    (%rdx,%rdx,4),%rax
  40195f:	48 8d 14 80          	lea    (%rax,%rax,4),%rdx
  401963:	48 8d 04 95 00 00 00 	lea    0x0(,%rdx,4),%rax
  40196a:	00 
  40196b:	48 29 c1             	sub    %rax,%rcx
  40196e:	4c 8d 24 0c          	lea    (%rsp,%rcx,1),%r12
  401972:	41 89 e8             	mov    %ebp,%r8d
  401975:	b9 ce 31 40 00       	mov    $0x4031ce,%ecx
  40197a:	48 c7 c2 ff ff ff ff 	mov    $0xffffffffffffffff,%rdx
  401981:	be 01 00 00 00       	mov    $0x1,%esi
  401986:	4c 89 e7             	mov    %r12,%rdi
  401989:	b8 00 00 00 00       	mov    $0x0,%eax
  40198e:	e8 ed f4 ff ff       	callq  400e80 <__sprintf_chk@plt>
  401993:	ba 09 00 00 00       	mov    $0x9,%edx
  401998:	4c 89 e6             	mov    %r12,%rsi
  40199b:	48 89 df             	mov    %rbx,%rdi
  40199e:	e8 0d f3 ff ff       	callq  400cb0 <strncmp@plt>
  4019a3:	85 c0                	test   %eax,%eax
  4019a5:	0f 94 c0             	sete   %al
  4019a8:	48 8b 5c 24 78       	mov    0x78(%rsp),%rbx
  4019ad:	64 48 33 1c 25 28 00 	xor    %fs:0x28,%rbx
  4019b4:	00 00 
  4019b6:	74 05                	je     4019bd <hexmatch+0xa5>
  4019b8:	e8 33 f3 ff ff       	callq  400cf0 <__stack_chk_fail@plt>
  4019bd:	0f b6 c0             	movzbl %al,%eax
  4019c0:	48 83 ec 80          	sub    $0xffffffffffffff80,%rsp
  4019c4:	5b                   	pop    %rbx
  4019c5:	5d                   	pop    %rbp
  4019c6:	41 5c                	pop    %r12
  4019c8:	c3                   	retq   

00000000004019c9 <touch3>:
  4019c9:	53                   	push   %rbx
  4019ca:	48 89 fb             	mov    %rdi,%rbx
  4019cd:	c7 05 45 2b 20 00 03 	movl   $0x3,0x202b45(%rip)        # 60451c <vlevel>
  4019d4:	00 00 00 
  4019d7:	48 89 fe             	mov    %rdi,%rsi
  4019da:	8b 3d 44 2b 20 00    	mov    0x202b44(%rip),%edi        # 604524 <cookie>
  4019e0:	e8 33 ff ff ff       	callq  401918 <hexmatch>
  4019e5:	85 c0                	test   %eax,%eax
  4019e7:	74 23                	je     401a0c <touch3+0x43>
  4019e9:	48 89 da             	mov    %rbx,%rdx
  4019ec:	be 28 32 40 00       	mov    $0x403228,%esi
  4019f1:	bf 01 00 00 00       	mov    $0x1,%edi
  4019f6:	b8 00 00 00 00       	mov    $0x0,%eax
  4019fb:	e8 00 f4 ff ff       	callq  400e00 <__printf_chk@plt>
  401a00:	bf 03 00 00 00       	mov    $0x3,%edi
  401a05:	e8 3b 03 00 00       	callq  401d45 <validate>
  401a0a:	eb 21                	jmp    401a2d <touch3+0x64>
  401a0c:	48 89 da             	mov    %rbx,%rdx
  401a0f:	be 50 32 40 00       	mov    $0x403250,%esi
  401a14:	bf 01 00 00 00       	mov    $0x1,%edi
  401a19:	b8 00 00 00 00       	mov    $0x0,%eax
  401a1e:	e8 dd f3 ff ff       	callq  400e00 <__printf_chk@plt>
  401a23:	bf 03 00 00 00       	mov    $0x3,%edi
  401a28:	e8 da 03 00 00       	callq  401e07 <fail>
  401a2d:	bf 00 00 00 00       	mov    $0x0,%edi
  401a32:	e8 19 f4 ff ff       	callq  400e50 <exit@plt>

0000000000401a37 <test>:
  401a37:	48 83 ec 08          	sub    $0x8,%rsp
  401a3b:	b8 00 00 00 00       	mov    $0x0,%eax
  401a40:	e8 31 fe ff ff       	callq  401876 <getbuf>
  401a45:	89 c2                	mov    %eax,%edx
  401a47:	be 78 32 40 00       	mov    $0x403278,%esi
  401a4c:	bf 01 00 00 00       	mov    $0x1,%edi
  401a51:	b8 00 00 00 00       	mov    $0x0,%eax
  401a56:	e8 a5 f3 ff ff       	callq  400e00 <__printf_chk@plt>
  401a5b:	48 83 c4 08          	add    $0x8,%rsp
  401a5f:	c3                   	retq   

0000000000401a60 <save_char>:
  401a60:	8b 05 de 36 20 00    	mov    0x2036de(%rip),%eax        # 605144 <gets_cnt>
  401a66:	3d ff 03 00 00       	cmp    $0x3ff,%eax
  401a6b:	7f 49                	jg     401ab6 <save_char+0x56>
  401a6d:	8d 14 40             	lea    (%rax,%rax,2),%edx
  401a70:	89 f9                	mov    %edi,%ecx
  401a72:	c0 e9 04             	shr    $0x4,%cl
  401a75:	83 e1 0f             	and    $0xf,%ecx
  401a78:	0f b6 b1 a0 35 40 00 	movzbl 0x4035a0(%rcx),%esi
  401a7f:	48 63 ca             	movslq %edx,%rcx
  401a82:	40 88 b1 40 45 60 00 	mov    %sil,0x604540(%rcx)
  401a89:	8d 4a 01             	lea    0x1(%rdx),%ecx
  401a8c:	83 e7 0f             	and    $0xf,%edi
  401a8f:	0f b6 b7 a0 35 40 00 	movzbl 0x4035a0(%rdi),%esi
  401a96:	48 63 c9             	movslq %ecx,%rcx
  401a99:	40 88 b1 40 45 60 00 	mov    %sil,0x604540(%rcx)
  401aa0:	83 c2 02             	add    $0x2,%edx
  401aa3:	48 63 d2             	movslq %edx,%rdx
  401aa6:	c6 82 40 45 60 00 20 	movb   $0x20,0x604540(%rdx)
  401aad:	83 c0 01             	add    $0x1,%eax
  401ab0:	89 05 8e 36 20 00    	mov    %eax,0x20368e(%rip)        # 605144 <gets_cnt>
  401ab6:	f3 c3                	repz retq 

0000000000401ab8 <save_term>:
  401ab8:	8b 05 86 36 20 00    	mov    0x203686(%rip),%eax        # 605144 <gets_cnt>
  401abe:	8d 04 40             	lea    (%rax,%rax,2),%eax
  401ac1:	48 98                	cltq   
  401ac3:	c6 80 40 45 60 00 00 	movb   $0x0,0x604540(%rax)
  401aca:	c3                   	retq   

0000000000401acb <check_fail>:
  401acb:	48 83 ec 08          	sub    $0x8,%rsp
  401acf:	0f be 15 72 36 20 00 	movsbl 0x203672(%rip),%edx        # 605148 <target_prefix>
  401ad6:	41 b8 40 45 60 00    	mov    $0x604540,%r8d
  401adc:	8b 0d 36 2a 20 00    	mov    0x202a36(%rip),%ecx        # 604518 <check_level>
  401ae2:	be 9b 32 40 00       	mov    $0x40329b,%esi
  401ae7:	bf 01 00 00 00       	mov    $0x1,%edi
  401aec:	b8 00 00 00 00       	mov    $0x0,%eax
  401af1:	e8 0a f3 ff ff       	callq  400e00 <__printf_chk@plt>
  401af6:	bf 01 00 00 00       	mov    $0x1,%edi
  401afb:	e8 50 f3 ff ff       	callq  400e50 <exit@plt>

0000000000401b00 <Gets>:
  401b00:	41 54                	push   %r12
  401b02:	55                   	push   %rbp
  401b03:	53                   	push   %rbx
  401b04:	49 89 fc             	mov    %rdi,%r12
  401b07:	c7 05 33 36 20 00 00 	movl   $0x0,0x203633(%rip)        # 605144 <gets_cnt>
  401b0e:	00 00 00 
  401b11:	48 89 fb             	mov    %rdi,%rbx
  401b14:	eb 11                	jmp    401b27 <Gets+0x27>
  401b16:	48 8d 6b 01          	lea    0x1(%rbx),%rbp
  401b1a:	88 03                	mov    %al,(%rbx)
  401b1c:	0f b6 f8             	movzbl %al,%edi
  401b1f:	e8 3c ff ff ff       	callq  401a60 <save_char>
  401b24:	48 89 eb             	mov    %rbp,%rbx
  401b27:	48 8b 3d e2 29 20 00 	mov    0x2029e2(%rip),%rdi        # 604510 <infile>
  401b2e:	e8 9d f2 ff ff       	callq  400dd0 <_IO_getc@plt>
  401b33:	83 f8 ff             	cmp    $0xffffffff,%eax
  401b36:	74 05                	je     401b3d <Gets+0x3d>
  401b38:	83 f8 0a             	cmp    $0xa,%eax
  401b3b:	75 d9                	jne    401b16 <Gets+0x16>
  401b3d:	c6 03 00             	movb   $0x0,(%rbx)
  401b40:	b8 00 00 00 00       	mov    $0x0,%eax
  401b45:	e8 6e ff ff ff       	callq  401ab8 <save_term>
  401b4a:	4c 89 e0             	mov    %r12,%rax
  401b4d:	5b                   	pop    %rbx
  401b4e:	5d                   	pop    %rbp
  401b4f:	41 5c                	pop    %r12
  401b51:	c3                   	retq   

0000000000401b52 <notify_server>:
  401b52:	53                   	push   %rbx
  401b53:	48 81 ec 10 40 00 00 	sub    $0x4010,%rsp
  401b5a:	64 48 8b 04 25 28 00 	mov    %fs:0x28,%rax
  401b61:	00 00 
  401b63:	48 89 84 24 08 40 00 	mov    %rax,0x4008(%rsp)
  401b6a:	00 
  401b6b:	31 c0                	xor    %eax,%eax
  401b6d:	83 3d b4 29 20 00 00 	cmpl   $0x0,0x2029b4(%rip)        # 604528 <is_checker>
  401b74:	0f 85 aa 01 00 00    	jne    401d24 <notify_server+0x1d2>
  401b7a:	89 fb                	mov    %edi,%ebx
  401b7c:	8b 05 c2 35 20 00    	mov    0x2035c2(%rip),%eax        # 605144 <gets_cnt>
  401b82:	83 c0 64             	add    $0x64,%eax
  401b85:	3d 00 20 00 00       	cmp    $0x2000,%eax
  401b8a:	7e 1e                	jle    401baa <notify_server+0x58>
  401b8c:	be d0 33 40 00       	mov    $0x4033d0,%esi
  401b91:	bf 01 00 00 00       	mov    $0x1,%edi
  401b96:	b8 00 00 00 00       	mov    $0x0,%eax
  401b9b:	e8 60 f2 ff ff       	callq  400e00 <__printf_chk@plt>
  401ba0:	bf 01 00 00 00       	mov    $0x1,%edi
  401ba5:	e8 a6 f2 ff ff       	callq  400e50 <exit@plt>
  401baa:	0f be 05 97 35 20 00 	movsbl 0x203597(%rip),%eax        # 605148 <target_prefix>
  401bb1:	83 3d f0 28 20 00 00 	cmpl   $0x0,0x2028f0(%rip)        # 6044a8 <notify>
  401bb8:	74 08                	je     401bc2 <notify_server+0x70>
  401bba:	8b 15 60 29 20 00    	mov    0x202960(%rip),%edx        # 604520 <authkey>
  401bc0:	eb 05                	jmp    401bc7 <notify_server+0x75>
  401bc2:	ba ff ff ff ff       	mov    $0xffffffff,%edx
  401bc7:	85 db                	test   %ebx,%ebx
  401bc9:	74 08                	je     401bd3 <notify_server+0x81>
  401bcb:	41 b9 b1 32 40 00    	mov    $0x4032b1,%r9d
  401bd1:	eb 06                	jmp    401bd9 <notify_server+0x87>
  401bd3:	41 b9 b6 32 40 00    	mov    $0x4032b6,%r9d
  401bd9:	68 40 45 60 00       	pushq  $0x604540
  401bde:	56                   	push   %rsi
  401bdf:	50                   	push   %rax
  401be0:	52                   	push   %rdx
  401be1:	44 8b 05 80 25 20 00 	mov    0x202580(%rip),%r8d        # 604168 <target_id>
  401be8:	b9 bb 32 40 00       	mov    $0x4032bb,%ecx
  401bed:	ba 00 20 00 00       	mov    $0x2000,%edx
  401bf2:	be 01 00 00 00       	mov    $0x1,%esi
  401bf7:	48 8d 7c 24 20       	lea    0x20(%rsp),%rdi
  401bfc:	b8 00 00 00 00       	mov    $0x0,%eax
  401c01:	e8 7a f2 ff ff       	callq  400e80 <__sprintf_chk@plt>
  401c06:	48 83 c4 20          	add    $0x20,%rsp
  401c0a:	83 3d 97 28 20 00 00 	cmpl   $0x0,0x202897(%rip)        # 6044a8 <notify>
  401c11:	0f 84 81 00 00 00    	je     401c98 <notify_server+0x146>
  401c17:	85 db                	test   %ebx,%ebx
  401c19:	74 6e                	je     401c89 <notify_server+0x137>
  401c1b:	4c 8d 8c 24 00 20 00 	lea    0x2000(%rsp),%r9
  401c22:	00 
  401c23:	41 b8 00 00 00 00    	mov    $0x0,%r8d
  401c29:	48 89 e1             	mov    %rsp,%rcx
  401c2c:	48 8b 15 3d 25 20 00 	mov    0x20253d(%rip),%rdx        # 604170 <lab>
  401c33:	48 8b 35 3e 25 20 00 	mov    0x20253e(%rip),%rsi        # 604178 <course>
  401c3a:	48 8b 3d 1f 25 20 00 	mov    0x20251f(%rip),%rdi        # 604160 <user_id>
  401c41:	e8 ef 10 00 00       	callq  402d35 <driver_post>
  401c46:	85 c0                	test   %eax,%eax
  401c48:	79 26                	jns    401c70 <notify_server+0x11e>
  401c4a:	48 8d 94 24 00 20 00 	lea    0x2000(%rsp),%rdx
  401c51:	00 
  401c52:	be d7 32 40 00       	mov    $0x4032d7,%esi
  401c57:	bf 01 00 00 00       	mov    $0x1,%edi
  401c5c:	b8 00 00 00 00       	mov    $0x0,%eax
  401c61:	e8 9a f1 ff ff       	callq  400e00 <__printf_chk@plt>
  401c66:	bf 01 00 00 00       	mov    $0x1,%edi
  401c6b:	e8 e0 f1 ff ff       	callq  400e50 <exit@plt>
  401c70:	bf 00 34 40 00       	mov    $0x403400,%edi
  401c75:	e8 56 f0 ff ff       	callq  400cd0 <puts@plt>
  401c7a:	bf e3 32 40 00       	mov    $0x4032e3,%edi
  401c7f:	e8 4c f0 ff ff       	callq  400cd0 <puts@plt>
  401c84:	e9 9b 00 00 00       	jmpq   401d24 <notify_server+0x1d2>
  401c89:	bf ed 32 40 00       	mov    $0x4032ed,%edi
  401c8e:	e8 3d f0 ff ff       	callq  400cd0 <puts@plt>
  401c93:	e9 8c 00 00 00       	jmpq   401d24 <notify_server+0x1d2>
  401c98:	85 db                	test   %ebx,%ebx
  401c9a:	74 07                	je     401ca3 <notify_server+0x151>
  401c9c:	ba b1 32 40 00       	mov    $0x4032b1,%edx
  401ca1:	eb 05                	jmp    401ca8 <notify_server+0x156>
  401ca3:	ba b6 32 40 00       	mov    $0x4032b6,%edx
  401ca8:	be 38 34 40 00       	mov    $0x403438,%esi
  401cad:	bf 01 00 00 00       	mov    $0x1,%edi
  401cb2:	b8 00 00 00 00       	mov    $0x0,%eax
  401cb7:	e8 44 f1 ff ff       	callq  400e00 <__printf_chk@plt>
  401cbc:	48 8b 15 9d 24 20 00 	mov    0x20249d(%rip),%rdx        # 604160 <user_id>
  401cc3:	be f4 32 40 00       	mov    $0x4032f4,%esi
  401cc8:	bf 01 00 00 00       	mov    $0x1,%edi
  401ccd:	b8 00 00 00 00       	mov    $0x0,%eax
  401cd2:	e8 29 f1 ff ff       	callq  400e00 <__printf_chk@plt>
  401cd7:	48 8b 15 9a 24 20 00 	mov    0x20249a(%rip),%rdx        # 604178 <course>
  401cde:	be 01 33 40 00       	mov    $0x403301,%esi
  401ce3:	bf 01 00 00 00       	mov    $0x1,%edi
  401ce8:	b8 00 00 00 00       	mov    $0x0,%eax
  401ced:	e8 0e f1 ff ff       	callq  400e00 <__printf_chk@plt>
  401cf2:	48 8b 15 77 24 20 00 	mov    0x202477(%rip),%rdx        # 604170 <lab>
  401cf9:	be 0d 33 40 00       	mov    $0x40330d,%esi
  401cfe:	bf 01 00 00 00       	mov    $0x1,%edi
  401d03:	b8 00 00 00 00       	mov    $0x0,%eax
  401d08:	e8 f3 f0 ff ff       	callq  400e00 <__printf_chk@plt>
  401d0d:	48 89 e2             	mov    %rsp,%rdx
  401d10:	be 16 33 40 00       	mov    $0x403316,%esi
  401d15:	bf 01 00 00 00       	mov    $0x1,%edi
  401d1a:	b8 00 00 00 00       	mov    $0x0,%eax
  401d1f:	e8 dc f0 ff ff       	callq  400e00 <__printf_chk@plt>
  401d24:	48 8b 84 24 08 40 00 	mov    0x4008(%rsp),%rax
  401d2b:	00 
  401d2c:	64 48 33 04 25 28 00 	xor    %fs:0x28,%rax
  401d33:	00 00 
  401d35:	74 05                	je     401d3c <notify_server+0x1ea>
  401d37:	e8 b4 ef ff ff       	callq  400cf0 <__stack_chk_fail@plt>
  401d3c:	48 81 c4 10 40 00 00 	add    $0x4010,%rsp
  401d43:	5b                   	pop    %rbx
  401d44:	c3                   	retq   

0000000000401d45 <validate>:
  401d45:	53                   	push   %rbx
  401d46:	89 fb                	mov    %edi,%ebx
  401d48:	83 3d d9 27 20 00 00 	cmpl   $0x0,0x2027d9(%rip)        # 604528 <is_checker>
  401d4f:	74 6b                	je     401dbc <validate+0x77>
  401d51:	39 3d c5 27 20 00    	cmp    %edi,0x2027c5(%rip)        # 60451c <vlevel>
  401d57:	74 14                	je     401d6d <validate+0x28>
  401d59:	bf 22 33 40 00       	mov    $0x403322,%edi
  401d5e:	e8 6d ef ff ff       	callq  400cd0 <puts@plt>
  401d63:	b8 00 00 00 00       	mov    $0x0,%eax
  401d68:	e8 5e fd ff ff       	callq  401acb <check_fail>
  401d6d:	8b 15 a5 27 20 00    	mov    0x2027a5(%rip),%edx        # 604518 <check_level>
  401d73:	39 d7                	cmp    %edx,%edi
  401d75:	74 20                	je     401d97 <validate+0x52>
  401d77:	89 f9                	mov    %edi,%ecx
  401d79:	be 60 34 40 00       	mov    $0x403460,%esi
  401d7e:	bf 01 00 00 00       	mov    $0x1,%edi
  401d83:	b8 00 00 00 00       	mov    $0x0,%eax
  401d88:	e8 73 f0 ff ff       	callq  400e00 <__printf_chk@plt>
  401d8d:	b8 00 00 00 00       	mov    $0x0,%eax
  401d92:	e8 34 fd ff ff       	callq  401acb <check_fail>
  401d97:	0f be 15 aa 33 20 00 	movsbl 0x2033aa(%rip),%edx        # 605148 <target_prefix>
  401d9e:	41 b8 40 45 60 00    	mov    $0x604540,%r8d
  401da4:	89 f9                	mov    %edi,%ecx
  401da6:	be 40 33 40 00       	mov    $0x403340,%esi
  401dab:	bf 01 00 00 00       	mov    $0x1,%edi
  401db0:	b8 00 00 00 00       	mov    $0x0,%eax
  401db5:	e8 46 f0 ff ff       	callq  400e00 <__printf_chk@plt>
  401dba:	eb 49                	jmp    401e05 <validate+0xc0>
  401dbc:	3b 3d 5a 27 20 00    	cmp    0x20275a(%rip),%edi        # 60451c <vlevel>
  401dc2:	74 18                	je     401ddc <validate+0x97>
  401dc4:	bf 22 33 40 00       	mov    $0x403322,%edi
  401dc9:	e8 02 ef ff ff       	callq  400cd0 <puts@plt>
  401dce:	89 de                	mov    %ebx,%esi
  401dd0:	bf 00 00 00 00       	mov    $0x0,%edi
  401dd5:	e8 78 fd ff ff       	callq  401b52 <notify_server>
  401dda:	eb 29                	jmp    401e05 <validate+0xc0>
  401ddc:	0f be 0d 65 33 20 00 	movsbl 0x203365(%rip),%ecx        # 605148 <target_prefix>
  401de3:	89 fa                	mov    %edi,%edx
  401de5:	be 88 34 40 00       	mov    $0x403488,%esi
  401dea:	bf 01 00 00 00       	mov    $0x1,%edi
  401def:	b8 00 00 00 00       	mov    $0x0,%eax
  401df4:	e8 07 f0 ff ff       	callq  400e00 <__printf_chk@plt>
  401df9:	89 de                	mov    %ebx,%esi
  401dfb:	bf 01 00 00 00       	mov    $0x1,%edi
  401e00:	e8 4d fd ff ff       	callq  401b52 <notify_server>
  401e05:	5b                   	pop    %rbx
  401e06:	c3                   	retq   

0000000000401e07 <fail>:
  401e07:	48 83 ec 08          	sub    $0x8,%rsp
  401e0b:	83 3d 16 27 20 00 00 	cmpl   $0x0,0x202716(%rip)        # 604528 <is_checker>
  401e12:	74 0a                	je     401e1e <fail+0x17>
  401e14:	b8 00 00 00 00       	mov    $0x0,%eax
  401e19:	e8 ad fc ff ff       	callq  401acb <check_fail>
  401e1e:	89 fe                	mov    %edi,%esi
  401e20:	bf 00 00 00 00       	mov    $0x0,%edi
  401e25:	e8 28 fd ff ff       	callq  401b52 <notify_server>
  401e2a:	48 83 c4 08          	add    $0x8,%rsp
  401e2e:	c3                   	retq   

0000000000401e2f <bushandler>:
  401e2f:	48 83 ec 08          	sub    $0x8,%rsp
  401e33:	83 3d ee 26 20 00 00 	cmpl   $0x0,0x2026ee(%rip)        # 604528 <is_checker>
  401e3a:	74 14                	je     401e50 <bushandler+0x21>
  401e3c:	bf 55 33 40 00       	mov    $0x403355,%edi
  401e41:	e8 8a ee ff ff       	callq  400cd0 <puts@plt>
  401e46:	b8 00 00 00 00       	mov    $0x0,%eax
  401e4b:	e8 7b fc ff ff       	callq  401acb <check_fail>
  401e50:	bf c0 34 40 00       	mov    $0x4034c0,%edi
  401e55:	e8 76 ee ff ff       	callq  400cd0 <puts@plt>
  401e5a:	bf 5f 33 40 00       	mov    $0x40335f,%edi
  401e5f:	e8 6c ee ff ff       	callq  400cd0 <puts@plt>
  401e64:	be 00 00 00 00       	mov    $0x0,%esi
  401e69:	bf 00 00 00 00       	mov    $0x0,%edi
  401e6e:	e8 df fc ff ff       	callq  401b52 <notify_server>
  401e73:	bf 01 00 00 00       	mov    $0x1,%edi
  401e78:	e8 d3 ef ff ff       	callq  400e50 <exit@plt>

0000000000401e7d <seghandler>:
  401e7d:	48 83 ec 08          	sub    $0x8,%rsp
  401e81:	83 3d a0 26 20 00 00 	cmpl   $0x0,0x2026a0(%rip)        # 604528 <is_checker>
  401e88:	74 14                	je     401e9e <seghandler+0x21>
  401e8a:	bf 75 33 40 00       	mov    $0x403375,%edi
  401e8f:	e8 3c ee ff ff       	callq  400cd0 <puts@plt>
  401e94:	b8 00 00 00 00       	mov    $0x0,%eax
  401e99:	e8 2d fc ff ff       	callq  401acb <check_fail>
  401e9e:	bf e0 34 40 00       	mov    $0x4034e0,%edi
  401ea3:	e8 28 ee ff ff       	callq  400cd0 <puts@plt>
  401ea8:	bf 5f 33 40 00       	mov    $0x40335f,%edi
  401ead:	e8 1e ee ff ff       	callq  400cd0 <puts@plt>
  401eb2:	be 00 00 00 00       	mov    $0x0,%esi
  401eb7:	bf 00 00 00 00       	mov    $0x0,%edi
  401ebc:	e8 91 fc ff ff       	callq  401b52 <notify_server>
  401ec1:	bf 01 00 00 00       	mov    $0x1,%edi
  401ec6:	e8 85 ef ff ff       	callq  400e50 <exit@plt>

0000000000401ecb <illegalhandler>:
  401ecb:	48 83 ec 08          	sub    $0x8,%rsp
  401ecf:	83 3d 52 26 20 00 00 	cmpl   $0x0,0x202652(%rip)        # 604528 <is_checker>
  401ed6:	74 14                	je     401eec <illegalhandler+0x21>
  401ed8:	bf 88 33 40 00       	mov    $0x403388,%edi
  401edd:	e8 ee ed ff ff       	callq  400cd0 <puts@plt>
  401ee2:	b8 00 00 00 00       	mov    $0x0,%eax
  401ee7:	e8 df fb ff ff       	callq  401acb <check_fail>
  401eec:	bf 08 35 40 00       	mov    $0x403508,%edi
  401ef1:	e8 da ed ff ff       	callq  400cd0 <puts@plt>
  401ef6:	bf 5f 33 40 00       	mov    $0x40335f,%edi
  401efb:	e8 d0 ed ff ff       	callq  400cd0 <puts@plt>
  401f00:	be 00 00 00 00       	mov    $0x0,%esi
  401f05:	bf 00 00 00 00       	mov    $0x0,%edi
  401f0a:	e8 43 fc ff ff       	callq  401b52 <notify_server>
  401f0f:	bf 01 00 00 00       	mov    $0x1,%edi
  401f14:	e8 37 ef ff ff       	callq  400e50 <exit@plt>

0000000000401f19 <sigalrmhandler>:
  401f19:	48 83 ec 08          	sub    $0x8,%rsp
  401f1d:	83 3d 04 26 20 00 00 	cmpl   $0x0,0x202604(%rip)        # 604528 <is_checker>
  401f24:	74 14                	je     401f3a <sigalrmhandler+0x21>
  401f26:	bf 9c 33 40 00       	mov    $0x40339c,%edi
  401f2b:	e8 a0 ed ff ff       	callq  400cd0 <puts@plt>
  401f30:	b8 00 00 00 00       	mov    $0x0,%eax
  401f35:	e8 91 fb ff ff       	callq  401acb <check_fail>
  401f3a:	ba 05 00 00 00       	mov    $0x5,%edx
  401f3f:	be 38 35 40 00       	mov    $0x403538,%esi
  401f44:	bf 01 00 00 00       	mov    $0x1,%edi
  401f49:	b8 00 00 00 00       	mov    $0x0,%eax
  401f4e:	e8 ad ee ff ff       	callq  400e00 <__printf_chk@plt>
  401f53:	be 00 00 00 00       	mov    $0x0,%esi
  401f58:	bf 00 00 00 00       	mov    $0x0,%edi
  401f5d:	e8 f0 fb ff ff       	callq  401b52 <notify_server>
  401f62:	bf 01 00 00 00       	mov    $0x1,%edi
  401f67:	e8 e4 ee ff ff       	callq  400e50 <exit@plt>

0000000000401f6c <launch>:
  401f6c:	55                   	push   %rbp
  401f6d:	48 89 e5             	mov    %rsp,%rbp
  401f70:	48 83 ec 10          	sub    $0x10,%rsp
  401f74:	48 89 fa             	mov    %rdi,%rdx
  401f77:	64 48 8b 04 25 28 00 	mov    %fs:0x28,%rax
  401f7e:	00 00 
  401f80:	48 89 45 f8          	mov    %rax,-0x8(%rbp)
  401f84:	31 c0                	xor    %eax,%eax
  401f86:	48 8d 47 1e          	lea    0x1e(%rdi),%rax
  401f8a:	48 83 e0 f0          	and    $0xfffffffffffffff0,%rax
  401f8e:	48 29 c4             	sub    %rax,%rsp
  401f91:	48 8d 7c 24 0f       	lea    0xf(%rsp),%rdi
  401f96:	48 83 e7 f0          	and    $0xfffffffffffffff0,%rdi
  401f9a:	be f4 00 00 00       	mov    $0xf4,%esi
  401f9f:	e8 6c ed ff ff       	callq  400d10 <memset@plt>
  401fa4:	48 8b 05 15 25 20 00 	mov    0x202515(%rip),%rax        # 6044c0 <stdin@@GLIBC_2.2.5>
  401fab:	48 39 05 5e 25 20 00 	cmp    %rax,0x20255e(%rip)        # 604510 <infile>
  401fb2:	75 14                	jne    401fc8 <launch+0x5c>
  401fb4:	be a4 33 40 00       	mov    $0x4033a4,%esi
  401fb9:	bf 01 00 00 00       	mov    $0x1,%edi
  401fbe:	b8 00 00 00 00       	mov    $0x0,%eax
  401fc3:	e8 38 ee ff ff       	callq  400e00 <__printf_chk@plt>
  401fc8:	c7 05 4a 25 20 00 00 	movl   $0x0,0x20254a(%rip)        # 60451c <vlevel>
  401fcf:	00 00 00 
  401fd2:	b8 00 00 00 00       	mov    $0x0,%eax
  401fd7:	e8 5b fa ff ff       	callq  401a37 <test>
  401fdc:	83 3d 45 25 20 00 00 	cmpl   $0x0,0x202545(%rip)        # 604528 <is_checker>
  401fe3:	74 14                	je     401ff9 <launch+0x8d>
  401fe5:	bf b1 33 40 00       	mov    $0x4033b1,%edi
  401fea:	e8 e1 ec ff ff       	callq  400cd0 <puts@plt>
  401fef:	b8 00 00 00 00       	mov    $0x0,%eax
  401ff4:	e8 d2 fa ff ff       	callq  401acb <check_fail>
  401ff9:	bf bc 33 40 00       	mov    $0x4033bc,%edi
  401ffe:	e8 cd ec ff ff       	callq  400cd0 <puts@plt>
  402003:	48 8b 45 f8          	mov    -0x8(%rbp),%rax
  402007:	64 48 33 04 25 28 00 	xor    %fs:0x28,%rax
  40200e:	00 00 
  402010:	74 05                	je     402017 <launch+0xab>
  402012:	e8 d9 ec ff ff       	callq  400cf0 <__stack_chk_fail@plt>
  402017:	c9                   	leaveq 
  402018:	c3                   	retq   

0000000000402019 <stable_launch>:
  402019:	53                   	push   %rbx
  40201a:	48 89 3d e7 24 20 00 	mov    %rdi,0x2024e7(%rip)        # 604508 <global_offset>
  402021:	41 b9 00 00 00 00    	mov    $0x0,%r9d
  402027:	41 b8 00 00 00 00    	mov    $0x0,%r8d
  40202d:	b9 32 01 00 00       	mov    $0x132,%ecx
  402032:	ba 07 00 00 00       	mov    $0x7,%edx
  402037:	be 00 00 10 00       	mov    $0x100000,%esi
  40203c:	bf 00 60 58 55       	mov    $0x55586000,%edi
  402041:	e8 ba ec ff ff       	callq  400d00 <mmap@plt>
  402046:	48 89 c3             	mov    %rax,%rbx
  402049:	48 3d 00 60 58 55    	cmp    $0x55586000,%rax
  40204f:	74 37                	je     402088 <stable_launch+0x6f>
  402051:	be 00 00 10 00       	mov    $0x100000,%esi
  402056:	48 89 c7             	mov    %rax,%rdi
  402059:	e8 92 ed ff ff       	callq  400df0 <munmap@plt>
  40205e:	b9 00 60 58 55       	mov    $0x55586000,%ecx
  402063:	ba 70 35 40 00       	mov    $0x403570,%edx
  402068:	be 01 00 00 00       	mov    $0x1,%esi
  40206d:	48 8b 3d 6c 24 20 00 	mov    0x20246c(%rip),%rdi        # 6044e0 <stderr@@GLIBC_2.2.5>
  402074:	b8 00 00 00 00       	mov    $0x0,%eax
  402079:	e8 f2 ed ff ff       	callq  400e70 <__fprintf_chk@plt>
  40207e:	bf 01 00 00 00       	mov    $0x1,%edi
  402083:	e8 c8 ed ff ff       	callq  400e50 <exit@plt>
  402088:	48 8d 90 f8 ff 0f 00 	lea    0xffff8(%rax),%rdx
  40208f:	48 89 15 ba 30 20 00 	mov    %rdx,0x2030ba(%rip)        # 605150 <stack_top>
  402096:	48 89 e0             	mov    %rsp,%rax
  402099:	48 89 d4             	mov    %rdx,%rsp
  40209c:	48 89 c2             	mov    %rax,%rdx
  40209f:	48 89 15 5a 24 20 00 	mov    %rdx,0x20245a(%rip)        # 604500 <global_save_stack>
  4020a6:	48 8b 3d 5b 24 20 00 	mov    0x20245b(%rip),%rdi        # 604508 <global_offset>
  4020ad:	e8 ba fe ff ff       	callq  401f6c <launch>
  4020b2:	48 8b 05 47 24 20 00 	mov    0x202447(%rip),%rax        # 604500 <global_save_stack>
  4020b9:	48 89 c4             	mov    %rax,%rsp
  4020bc:	be 00 00 10 00       	mov    $0x100000,%esi
  4020c1:	48 89 df             	mov    %rbx,%rdi
  4020c4:	e8 27 ed ff ff       	callq  400df0 <munmap@plt>
  4020c9:	5b                   	pop    %rbx
  4020ca:	c3                   	retq   

00000000004020cb <rio_readinitb>:
  4020cb:	89 37                	mov    %esi,(%rdi)
  4020cd:	c7 47 04 00 00 00 00 	movl   $0x0,0x4(%rdi)
  4020d4:	48 8d 47 10          	lea    0x10(%rdi),%rax
  4020d8:	48 89 47 08          	mov    %rax,0x8(%rdi)
  4020dc:	c3                   	retq   

00000000004020dd <sigalrm_handler>:
  4020dd:	48 83 ec 08          	sub    $0x8,%rsp
  4020e1:	b9 00 00 00 00       	mov    $0x0,%ecx
  4020e6:	ba b0 35 40 00       	mov    $0x4035b0,%edx
  4020eb:	be 01 00 00 00       	mov    $0x1,%esi
  4020f0:	48 8b 3d e9 23 20 00 	mov    0x2023e9(%rip),%rdi        # 6044e0 <stderr@@GLIBC_2.2.5>
  4020f7:	b8 00 00 00 00       	mov    $0x0,%eax
  4020fc:	e8 6f ed ff ff       	callq  400e70 <__fprintf_chk@plt>
  402101:	bf 01 00 00 00       	mov    $0x1,%edi
  402106:	e8 45 ed ff ff       	callq  400e50 <exit@plt>

000000000040210b <rio_writen>:
  40210b:	41 55                	push   %r13
  40210d:	41 54                	push   %r12
  40210f:	55                   	push   %rbp
  402110:	53                   	push   %rbx
  402111:	48 83 ec 08          	sub    $0x8,%rsp
  402115:	41 89 fc             	mov    %edi,%r12d
  402118:	48 89 f5             	mov    %rsi,%rbp
  40211b:	49 89 d5             	mov    %rdx,%r13
  40211e:	48 89 d3             	mov    %rdx,%rbx
  402121:	eb 28                	jmp    40214b <rio_writen+0x40>
  402123:	48 89 da             	mov    %rbx,%rdx
  402126:	48 89 ee             	mov    %rbp,%rsi
  402129:	44 89 e7             	mov    %r12d,%edi
  40212c:	e8 af eb ff ff       	callq  400ce0 <write@plt>
  402131:	48 85 c0             	test   %rax,%rax
  402134:	7f 0f                	jg     402145 <rio_writen+0x3a>
  402136:	e8 55 eb ff ff       	callq  400c90 <__errno_location@plt>
  40213b:	83 38 04             	cmpl   $0x4,(%rax)
  40213e:	75 15                	jne    402155 <rio_writen+0x4a>
  402140:	b8 00 00 00 00       	mov    $0x0,%eax
  402145:	48 29 c3             	sub    %rax,%rbx
  402148:	48 01 c5             	add    %rax,%rbp
  40214b:	48 85 db             	test   %rbx,%rbx
  40214e:	75 d3                	jne    402123 <rio_writen+0x18>
  402150:	4c 89 e8             	mov    %r13,%rax
  402153:	eb 07                	jmp    40215c <rio_writen+0x51>
  402155:	48 c7 c0 ff ff ff ff 	mov    $0xffffffffffffffff,%rax
  40215c:	48 83 c4 08          	add    $0x8,%rsp
  402160:	5b                   	pop    %rbx
  402161:	5d                   	pop    %rbp
  402162:	41 5c                	pop    %r12
  402164:	41 5d                	pop    %r13
  402166:	c3                   	retq   

0000000000402167 <rio_read>:
  402167:	41 55                	push   %r13
  402169:	41 54                	push   %r12
  40216b:	55                   	push   %rbp
  40216c:	53                   	push   %rbx
  40216d:	48 83 ec 08          	sub    $0x8,%rsp
  402171:	48 89 fb             	mov    %rdi,%rbx
  402174:	49 89 f5             	mov    %rsi,%r13
  402177:	49 89 d4             	mov    %rdx,%r12
  40217a:	eb 2e                	jmp    4021aa <rio_read+0x43>
  40217c:	48 8d 6b 10          	lea    0x10(%rbx),%rbp
  402180:	8b 3b                	mov    (%rbx),%edi
  402182:	ba 00 20 00 00       	mov    $0x2000,%edx
  402187:	48 89 ee             	mov    %rbp,%rsi
  40218a:	e8 b1 eb ff ff       	callq  400d40 <read@plt>
  40218f:	89 43 04             	mov    %eax,0x4(%rbx)
  402192:	85 c0                	test   %eax,%eax
  402194:	79 0c                	jns    4021a2 <rio_read+0x3b>
  402196:	e8 f5 ea ff ff       	callq  400c90 <__errno_location@plt>
  40219b:	83 38 04             	cmpl   $0x4,(%rax)
  40219e:	74 0a                	je     4021aa <rio_read+0x43>
  4021a0:	eb 37                	jmp    4021d9 <rio_read+0x72>
  4021a2:	85 c0                	test   %eax,%eax
  4021a4:	74 3c                	je     4021e2 <rio_read+0x7b>
  4021a6:	48 89 6b 08          	mov    %rbp,0x8(%rbx)
  4021aa:	8b 6b 04             	mov    0x4(%rbx),%ebp
  4021ad:	85 ed                	test   %ebp,%ebp
  4021af:	7e cb                	jle    40217c <rio_read+0x15>
  4021b1:	89 e8                	mov    %ebp,%eax
  4021b3:	49 39 c4             	cmp    %rax,%r12
  4021b6:	77 03                	ja     4021bb <rio_read+0x54>
  4021b8:	44 89 e5             	mov    %r12d,%ebp
  4021bb:	4c 63 e5             	movslq %ebp,%r12
  4021be:	48 8b 73 08          	mov    0x8(%rbx),%rsi
  4021c2:	4c 89 e2             	mov    %r12,%rdx
  4021c5:	4c 89 ef             	mov    %r13,%rdi
  4021c8:	e8 d3 eb ff ff       	callq  400da0 <memcpy@plt>
  4021cd:	4c 01 63 08          	add    %r12,0x8(%rbx)
  4021d1:	29 6b 04             	sub    %ebp,0x4(%rbx)
  4021d4:	4c 89 e0             	mov    %r12,%rax
  4021d7:	eb 0e                	jmp    4021e7 <rio_read+0x80>
  4021d9:	48 c7 c0 ff ff ff ff 	mov    $0xffffffffffffffff,%rax
  4021e0:	eb 05                	jmp    4021e7 <rio_read+0x80>
  4021e2:	b8 00 00 00 00       	mov    $0x0,%eax
  4021e7:	48 83 c4 08          	add    $0x8,%rsp
  4021eb:	5b                   	pop    %rbx
  4021ec:	5d                   	pop    %rbp
  4021ed:	41 5c                	pop    %r12
  4021ef:	41 5d                	pop    %r13
  4021f1:	c3                   	retq   

00000000004021f2 <rio_readlineb>:
  4021f2:	41 55                	push   %r13
  4021f4:	41 54                	push   %r12
  4021f6:	55                   	push   %rbp
  4021f7:	53                   	push   %rbx
  4021f8:	48 83 ec 18          	sub    $0x18,%rsp
  4021fc:	49 89 fd             	mov    %rdi,%r13
  4021ff:	48 89 f5             	mov    %rsi,%rbp
  402202:	49 89 d4             	mov    %rdx,%r12
  402205:	64 48 8b 04 25 28 00 	mov    %fs:0x28,%rax
  40220c:	00 00 
  40220e:	48 89 44 24 08       	mov    %rax,0x8(%rsp)
  402213:	31 c0                	xor    %eax,%eax
  402215:	bb 01 00 00 00       	mov    $0x1,%ebx
  40221a:	eb 3f                	jmp    40225b <rio_readlineb+0x69>
  40221c:	ba 01 00 00 00       	mov    $0x1,%edx
  402221:	48 8d 74 24 07       	lea    0x7(%rsp),%rsi
  402226:	4c 89 ef             	mov    %r13,%rdi
  402229:	e8 39 ff ff ff       	callq  402167 <rio_read>
  40222e:	83 f8 01             	cmp    $0x1,%eax
  402231:	75 15                	jne    402248 <rio_readlineb+0x56>
  402233:	48 8d 45 01          	lea    0x1(%rbp),%rax
  402237:	0f b6 54 24 07       	movzbl 0x7(%rsp),%edx
  40223c:	88 55 00             	mov    %dl,0x0(%rbp)
  40223f:	80 7c 24 07 0a       	cmpb   $0xa,0x7(%rsp)
  402244:	75 0e                	jne    402254 <rio_readlineb+0x62>
  402246:	eb 1a                	jmp    402262 <rio_readlineb+0x70>
  402248:	85 c0                	test   %eax,%eax
  40224a:	75 22                	jne    40226e <rio_readlineb+0x7c>
  40224c:	48 83 fb 01          	cmp    $0x1,%rbx
  402250:	75 13                	jne    402265 <rio_readlineb+0x73>
  402252:	eb 23                	jmp    402277 <rio_readlineb+0x85>
  402254:	48 83 c3 01          	add    $0x1,%rbx
  402258:	48 89 c5             	mov    %rax,%rbp
  40225b:	4c 39 e3             	cmp    %r12,%rbx
  40225e:	72 bc                	jb     40221c <rio_readlineb+0x2a>
  402260:	eb 03                	jmp    402265 <rio_readlineb+0x73>
  402262:	48 89 c5             	mov    %rax,%rbp
  402265:	c6 45 00 00          	movb   $0x0,0x0(%rbp)
  402269:	48 89 d8             	mov    %rbx,%rax
  40226c:	eb 0e                	jmp    40227c <rio_readlineb+0x8a>
  40226e:	48 c7 c0 ff ff ff ff 	mov    $0xffffffffffffffff,%rax
  402275:	eb 05                	jmp    40227c <rio_readlineb+0x8a>
  402277:	b8 00 00 00 00       	mov    $0x0,%eax
  40227c:	48 8b 4c 24 08       	mov    0x8(%rsp),%rcx
  402281:	64 48 33 0c 25 28 00 	xor    %fs:0x28,%rcx
  402288:	00 00 
  40228a:	74 05                	je     402291 <rio_readlineb+0x9f>
  40228c:	e8 5f ea ff ff       	callq  400cf0 <__stack_chk_fail@plt>
  402291:	48 83 c4 18          	add    $0x18,%rsp
  402295:	5b                   	pop    %rbx
  402296:	5d                   	pop    %rbp
  402297:	41 5c                	pop    %r12
  402299:	41 5d                	pop    %r13
  40229b:	c3                   	retq   

000000000040229c <urlencode>:
  40229c:	41 54                	push   %r12
  40229e:	55                   	push   %rbp
  40229f:	53                   	push   %rbx
  4022a0:	48 83 ec 10          	sub    $0x10,%rsp
  4022a4:	48 89 fb             	mov    %rdi,%rbx
  4022a7:	48 89 f5             	mov    %rsi,%rbp
  4022aa:	64 48 8b 04 25 28 00 	mov    %fs:0x28,%rax
  4022b1:	00 00 
  4022b3:	48 89 44 24 08       	mov    %rax,0x8(%rsp)
  4022b8:	31 c0                	xor    %eax,%eax
  4022ba:	48 c7 c1 ff ff ff ff 	mov    $0xffffffffffffffff,%rcx
  4022c1:	f2 ae                	repnz scas %es:(%rdi),%al
  4022c3:	48 f7 d1             	not    %rcx
  4022c6:	8d 41 ff             	lea    -0x1(%rcx),%eax
  4022c9:	e9 aa 00 00 00       	jmpq   402378 <urlencode+0xdc>
  4022ce:	44 0f b6 03          	movzbl (%rbx),%r8d
  4022d2:	41 80 f8 2a          	cmp    $0x2a,%r8b
  4022d6:	0f 94 c2             	sete   %dl
  4022d9:	41 80 f8 2d          	cmp    $0x2d,%r8b
  4022dd:	0f 94 c0             	sete   %al
  4022e0:	08 c2                	or     %al,%dl
  4022e2:	75 24                	jne    402308 <urlencode+0x6c>
  4022e4:	41 80 f8 2e          	cmp    $0x2e,%r8b
  4022e8:	74 1e                	je     402308 <urlencode+0x6c>
  4022ea:	41 80 f8 5f          	cmp    $0x5f,%r8b
  4022ee:	74 18                	je     402308 <urlencode+0x6c>
  4022f0:	41 8d 40 d0          	lea    -0x30(%r8),%eax
  4022f4:	3c 09                	cmp    $0x9,%al
  4022f6:	76 10                	jbe    402308 <urlencode+0x6c>
  4022f8:	41 8d 40 bf          	lea    -0x41(%r8),%eax
  4022fc:	3c 19                	cmp    $0x19,%al
  4022fe:	76 08                	jbe    402308 <urlencode+0x6c>
  402300:	41 8d 40 9f          	lea    -0x61(%r8),%eax
  402304:	3c 19                	cmp    $0x19,%al
  402306:	77 0a                	ja     402312 <urlencode+0x76>
  402308:	44 88 45 00          	mov    %r8b,0x0(%rbp)
  40230c:	48 8d 6d 01          	lea    0x1(%rbp),%rbp
  402310:	eb 5f                	jmp    402371 <urlencode+0xd5>
  402312:	41 80 f8 20          	cmp    $0x20,%r8b
  402316:	75 0a                	jne    402322 <urlencode+0x86>
  402318:	c6 45 00 2b          	movb   $0x2b,0x0(%rbp)
  40231c:	48 8d 6d 01          	lea    0x1(%rbp),%rbp
  402320:	eb 4f                	jmp    402371 <urlencode+0xd5>
  402322:	41 8d 40 e0          	lea    -0x20(%r8),%eax
  402326:	3c 5f                	cmp    $0x5f,%al
  402328:	0f 96 c2             	setbe  %dl
  40232b:	41 80 f8 09          	cmp    $0x9,%r8b
  40232f:	0f 94 c0             	sete   %al
  402332:	08 c2                	or     %al,%dl
  402334:	74 50                	je     402386 <urlencode+0xea>
  402336:	45 0f b6 c0          	movzbl %r8b,%r8d
  40233a:	b9 48 36 40 00       	mov    $0x403648,%ecx
  40233f:	ba 08 00 00 00       	mov    $0x8,%edx
  402344:	be 01 00 00 00       	mov    $0x1,%esi
  402349:	48 89 e7             	mov    %rsp,%rdi
  40234c:	b8 00 00 00 00       	mov    $0x0,%eax
  402351:	e8 2a eb ff ff       	callq  400e80 <__sprintf_chk@plt>
  402356:	0f b6 04 24          	movzbl (%rsp),%eax
  40235a:	88 45 00             	mov    %al,0x0(%rbp)
  40235d:	0f b6 44 24 01       	movzbl 0x1(%rsp),%eax
  402362:	88 45 01             	mov    %al,0x1(%rbp)
  402365:	0f b6 44 24 02       	movzbl 0x2(%rsp),%eax
  40236a:	88 45 02             	mov    %al,0x2(%rbp)
  40236d:	48 8d 6d 03          	lea    0x3(%rbp),%rbp
  402371:	48 83 c3 01          	add    $0x1,%rbx
  402375:	44 89 e0             	mov    %r12d,%eax
  402378:	44 8d 60 ff          	lea    -0x1(%rax),%r12d
  40237c:	85 c0                	test   %eax,%eax
  40237e:	0f 85 4a ff ff ff    	jne    4022ce <urlencode+0x32>
  402384:	eb 05                	jmp    40238b <urlencode+0xef>
  402386:	b8 ff ff ff ff       	mov    $0xffffffff,%eax
  40238b:	48 8b 74 24 08       	mov    0x8(%rsp),%rsi
  402390:	64 48 33 34 25 28 00 	xor    %fs:0x28,%rsi
  402397:	00 00 
  402399:	74 05                	je     4023a0 <urlencode+0x104>
  40239b:	e8 50 e9 ff ff       	callq  400cf0 <__stack_chk_fail@plt>
  4023a0:	48 83 c4 10          	add    $0x10,%rsp
  4023a4:	5b                   	pop    %rbx
  4023a5:	5d                   	pop    %rbp
  4023a6:	41 5c                	pop    %r12
  4023a8:	c3                   	retq   

00000000004023a9 <submitr>:
  4023a9:	41 57                	push   %r15
  4023ab:	41 56                	push   %r14
  4023ad:	41 55                	push   %r13
  4023af:	41 54                	push   %r12
  4023b1:	55                   	push   %rbp
  4023b2:	53                   	push   %rbx
  4023b3:	48 81 ec 58 a0 00 00 	sub    $0xa058,%rsp
  4023ba:	49 89 fc             	mov    %rdi,%r12
  4023bd:	89 74 24 04          	mov    %esi,0x4(%rsp)
  4023c1:	49 89 d7             	mov    %rdx,%r15
  4023c4:	49 89 ce             	mov    %rcx,%r14
  4023c7:	4c 89 44 24 08       	mov    %r8,0x8(%rsp)
  4023cc:	4d 89 cd             	mov    %r9,%r13
  4023cf:	48 8b 9c 24 90 a0 00 	mov    0xa090(%rsp),%rbx
  4023d6:	00 
  4023d7:	64 48 8b 04 25 28 00 	mov    %fs:0x28,%rax
  4023de:	00 00 
  4023e0:	48 89 84 24 48 a0 00 	mov    %rax,0xa048(%rsp)
  4023e7:	00 
  4023e8:	31 c0                	xor    %eax,%eax
  4023ea:	c7 44 24 1c 00 00 00 	movl   $0x0,0x1c(%rsp)
  4023f1:	00 
  4023f2:	ba 00 00 00 00       	mov    $0x0,%edx
  4023f7:	be 01 00 00 00       	mov    $0x1,%esi
  4023fc:	bf 02 00 00 00       	mov    $0x2,%edi
  402401:	e8 8a ea ff ff       	callq  400e90 <socket@plt>
  402406:	85 c0                	test   %eax,%eax
  402408:	79 4e                	jns    402458 <submitr+0xaf>
  40240a:	48 b8 45 72 72 6f 72 	movabs $0x43203a726f727245,%rax
  402411:	3a 20 43 
  402414:	48 89 03             	mov    %rax,(%rbx)
  402417:	48 b8 6c 69 65 6e 74 	movabs $0x6e7520746e65696c,%rax
  40241e:	20 75 6e 
  402421:	48 89 43 08          	mov    %rax,0x8(%rbx)
  402425:	48 b8 61 62 6c 65 20 	movabs $0x206f7420656c6261,%rax
  40242c:	74 6f 20 
  40242f:	48 89 43 10          	mov    %rax,0x10(%rbx)
  402433:	48 b8 63 72 65 61 74 	movabs $0x7320657461657263,%rax
  40243a:	65 20 73 
  40243d:	48 89 43 18          	mov    %rax,0x18(%rbx)
  402441:	c7 43 20 6f 63 6b 65 	movl   $0x656b636f,0x20(%rbx)
  402448:	66 c7 43 24 74 00    	movw   $0x74,0x24(%rbx)
  40244e:	b8 ff ff ff ff       	mov    $0xffffffff,%eax
  402453:	e9 97 06 00 00       	jmpq   402aef <submitr+0x746>
  402458:	89 c5                	mov    %eax,%ebp
  40245a:	4c 89 e7             	mov    %r12,%rdi
  40245d:	e8 0e e9 ff ff       	callq  400d70 <gethostbyname@plt>
  402462:	48 85 c0             	test   %rax,%rax
  402465:	75 67                	jne    4024ce <submitr+0x125>
  402467:	48 b8 45 72 72 6f 72 	movabs $0x44203a726f727245,%rax
  40246e:	3a 20 44 
  402471:	48 89 03             	mov    %rax,(%rbx)
  402474:	48 b8 4e 53 20 69 73 	movabs $0x6e7520736920534e,%rax
  40247b:	20 75 6e 
  40247e:	48 89 43 08          	mov    %rax,0x8(%rbx)
  402482:	48 b8 61 62 6c 65 20 	movabs $0x206f7420656c6261,%rax
  402489:	74 6f 20 
  40248c:	48 89 43 10          	mov    %rax,0x10(%rbx)
  402490:	48 b8 72 65 73 6f 6c 	movabs $0x2065766c6f736572,%rax
  402497:	76 65 20 
  40249a:	48 89 43 18          	mov    %rax,0x18(%rbx)
  40249e:	48 b8 73 65 72 76 65 	movabs $0x6120726576726573,%rax
  4024a5:	72 20 61 
  4024a8:	48 89 43 20          	mov    %rax,0x20(%rbx)
  4024ac:	c7 43 28 64 64 72 65 	movl   $0x65726464,0x28(%rbx)
  4024b3:	66 c7 43 2c 73 73    	movw   $0x7373,0x2c(%rbx)
  4024b9:	c6 43 2e 00          	movb   $0x0,0x2e(%rbx)
  4024bd:	89 ef                	mov    %ebp,%edi
  4024bf:	e8 6c e8 ff ff       	callq  400d30 <close@plt>
  4024c4:	b8 ff ff ff ff       	mov    $0xffffffff,%eax
  4024c9:	e9 21 06 00 00       	jmpq   402aef <submitr+0x746>
  4024ce:	48 c7 44 24 20 00 00 	movq   $0x0,0x20(%rsp)
  4024d5:	00 00 
  4024d7:	48 c7 44 24 28 00 00 	movq   $0x0,0x28(%rsp)
  4024de:	00 00 
  4024e0:	66 c7 44 24 20 02 00 	movw   $0x2,0x20(%rsp)
  4024e7:	48 63 50 14          	movslq 0x14(%rax),%rdx
  4024eb:	48 8b 40 18          	mov    0x18(%rax),%rax
  4024ef:	48 8b 30             	mov    (%rax),%rsi
  4024f2:	48 8d 7c 24 24       	lea    0x24(%rsp),%rdi
  4024f7:	b9 0c 00 00 00       	mov    $0xc,%ecx
  4024fc:	e8 7f e8 ff ff       	callq  400d80 <__memmove_chk@plt>
  402501:	0f b7 44 24 04       	movzwl 0x4(%rsp),%eax
  402506:	66 c1 c8 08          	ror    $0x8,%ax
  40250a:	66 89 44 24 22       	mov    %ax,0x22(%rsp)
  40250f:	ba 10 00 00 00       	mov    $0x10,%edx
  402514:	48 8d 74 24 20       	lea    0x20(%rsp),%rsi
  402519:	89 ef                	mov    %ebp,%edi
  40251b:	e8 40 e9 ff ff       	callq  400e60 <connect@plt>
  402520:	85 c0                	test   %eax,%eax
  402522:	79 59                	jns    40257d <submitr+0x1d4>
  402524:	48 b8 45 72 72 6f 72 	movabs $0x55203a726f727245,%rax
  40252b:	3a 20 55 
  40252e:	48 89 03             	mov    %rax,(%rbx)
  402531:	48 b8 6e 61 62 6c 65 	movabs $0x6f7420656c62616e,%rax
  402538:	20 74 6f 
  40253b:	48 89 43 08          	mov    %rax,0x8(%rbx)
  40253f:	48 b8 20 63 6f 6e 6e 	movabs $0x7463656e6e6f6320,%rax
  402546:	65 63 74 
  402549:	48 89 43 10          	mov    %rax,0x10(%rbx)
  40254d:	48 b8 20 74 6f 20 74 	movabs $0x20656874206f7420,%rax
  402554:	68 65 20 
  402557:	48 89 43 18          	mov    %rax,0x18(%rbx)
  40255b:	c7 43 20 73 65 72 76 	movl   $0x76726573,0x20(%rbx)
  402562:	66 c7 43 24 65 72    	movw   $0x7265,0x24(%rbx)
  402568:	c6 43 26 00          	movb   $0x0,0x26(%rbx)
  40256c:	89 ef                	mov    %ebp,%edi
  40256e:	e8 bd e7 ff ff       	callq  400d30 <close@plt>
  402573:	b8 ff ff ff ff       	mov    $0xffffffff,%eax
  402578:	e9 72 05 00 00       	jmpq   402aef <submitr+0x746>
  40257d:	48 c7 c6 ff ff ff ff 	mov    $0xffffffffffffffff,%rsi
  402584:	b8 00 00 00 00       	mov    $0x0,%eax
  402589:	48 89 f1             	mov    %rsi,%rcx
  40258c:	4c 89 ef             	mov    %r13,%rdi
  40258f:	f2 ae                	repnz scas %es:(%rdi),%al
  402591:	48 f7 d1             	not    %rcx
  402594:	48 89 ca             	mov    %rcx,%rdx
  402597:	48 89 f1             	mov    %rsi,%rcx
  40259a:	4c 89 ff             	mov    %r15,%rdi
  40259d:	f2 ae                	repnz scas %es:(%rdi),%al
  40259f:	48 f7 d1             	not    %rcx
  4025a2:	49 89 c8             	mov    %rcx,%r8
  4025a5:	48 89 f1             	mov    %rsi,%rcx
  4025a8:	4c 89 f7             	mov    %r14,%rdi
  4025ab:	f2 ae                	repnz scas %es:(%rdi),%al
  4025ad:	48 f7 d1             	not    %rcx
  4025b0:	4d 8d 44 08 fe       	lea    -0x2(%r8,%rcx,1),%r8
  4025b5:	48 89 f1             	mov    %rsi,%rcx
  4025b8:	48 8b 7c 24 08       	mov    0x8(%rsp),%rdi
  4025bd:	f2 ae                	repnz scas %es:(%rdi),%al
  4025bf:	48 89 c8             	mov    %rcx,%rax
  4025c2:	48 f7 d0             	not    %rax
  4025c5:	49 8d 4c 00 ff       	lea    -0x1(%r8,%rax,1),%rcx
  4025ca:	48 8d 44 52 fd       	lea    -0x3(%rdx,%rdx,2),%rax
  4025cf:	48 8d 84 01 80 00 00 	lea    0x80(%rcx,%rax,1),%rax
  4025d6:	00 
  4025d7:	48 3d 00 20 00 00    	cmp    $0x2000,%rax
  4025dd:	76 72                	jbe    402651 <submitr+0x2a8>
  4025df:	48 b8 45 72 72 6f 72 	movabs $0x52203a726f727245,%rax
  4025e6:	3a 20 52 
  4025e9:	48 89 03             	mov    %rax,(%rbx)
  4025ec:	48 b8 65 73 75 6c 74 	movabs $0x747320746c757365,%rax
  4025f3:	20 73 74 
  4025f6:	48 89 43 08          	mov    %rax,0x8(%rbx)
  4025fa:	48 b8 72 69 6e 67 20 	movabs $0x6f6f7420676e6972,%rax
  402601:	74 6f 6f 
  402604:	48 89 43 10          	mov    %rax,0x10(%rbx)
  402608:	48 b8 20 6c 61 72 67 	movabs $0x202e656772616c20,%rax
  40260f:	65 2e 20 
  402612:	48 89 43 18          	mov    %rax,0x18(%rbx)
  402616:	48 b8 49 6e 63 72 65 	movabs $0x6573616572636e49,%rax
  40261d:	61 73 65 
  402620:	48 89 43 20          	mov    %rax,0x20(%rbx)
  402624:	48 b8 20 53 55 42 4d 	movabs $0x5254494d42555320,%rax
  40262b:	49 54 52 
  40262e:	48 89 43 28          	mov    %rax,0x28(%rbx)
  402632:	48 b8 5f 4d 41 58 42 	movabs $0x46554258414d5f,%rax
  402639:	55 46 00 
  40263c:	48 89 43 30          	mov    %rax,0x30(%rbx)
  402640:	89 ef                	mov    %ebp,%edi
  402642:	e8 e9 e6 ff ff       	callq  400d30 <close@plt>
  402647:	b8 ff ff ff ff       	mov    $0xffffffff,%eax
  40264c:	e9 9e 04 00 00       	jmpq   402aef <submitr+0x746>
  402651:	48 8d b4 24 40 40 00 	lea    0x4040(%rsp),%rsi
  402658:	00 
  402659:	b9 00 04 00 00       	mov    $0x400,%ecx
  40265e:	b8 00 00 00 00       	mov    $0x0,%eax
  402663:	48 89 f7             	mov    %rsi,%rdi
  402666:	f3 48 ab             	rep stos %rax,%es:(%rdi)
  402669:	4c 89 ef             	mov    %r13,%rdi
  40266c:	e8 2b fc ff ff       	callq  40229c <urlencode>
  402671:	85 c0                	test   %eax,%eax
  402673:	0f 89 8a 00 00 00    	jns    402703 <submitr+0x35a>
  402679:	48 b8 45 72 72 6f 72 	movabs $0x52203a726f727245,%rax
  402680:	3a 20 52 
  402683:	48 89 03             	mov    %rax,(%rbx)
  402686:	48 b8 65 73 75 6c 74 	movabs $0x747320746c757365,%rax
  40268d:	20 73 74 
  402690:	48 89 43 08          	mov    %rax,0x8(%rbx)
  402694:	48 b8 72 69 6e 67 20 	movabs $0x6e6f6320676e6972,%rax
  40269b:	63 6f 6e 
  40269e:	48 89 43 10          	mov    %rax,0x10(%rbx)
  4026a2:	48 b8 74 61 69 6e 73 	movabs $0x6e6120736e696174,%rax
  4026a9:	20 61 6e 
  4026ac:	48 89 43 18          	mov    %rax,0x18(%rbx)
  4026b0:	48 b8 20 69 6c 6c 65 	movabs $0x6c6167656c6c6920,%rax
  4026b7:	67 61 6c 
  4026ba:	48 89 43 20          	mov    %rax,0x20(%rbx)
  4026be:	48 b8 20 6f 72 20 75 	movabs $0x72706e7520726f20,%rax
  4026c5:	6e 70 72 
  4026c8:	48 89 43 28          	mov    %rax,0x28(%rbx)
  4026cc:	48 b8 69 6e 74 61 62 	movabs $0x20656c6261746e69,%rax
  4026d3:	6c 65 20 
  4026d6:	48 89 43 30          	mov    %rax,0x30(%rbx)
  4026da:	48 b8 63 68 61 72 61 	movabs $0x6574636172616863,%rax
  4026e1:	63 74 65 
  4026e4:	48 89 43 38          	mov    %rax,0x38(%rbx)
  4026e8:	66 c7 43 40 72 2e    	movw   $0x2e72,0x40(%rbx)
  4026ee:	c6 43 42 00          	movb   $0x0,0x42(%rbx)
  4026f2:	89 ef                	mov    %ebp,%edi
  4026f4:	e8 37 e6 ff ff       	callq  400d30 <close@plt>
  4026f9:	b8 ff ff ff ff       	mov    $0xffffffff,%eax
  4026fe:	e9 ec 03 00 00       	jmpq   402aef <submitr+0x746>
  402703:	4c 8d ac 24 40 20 00 	lea    0x2040(%rsp),%r13
  40270a:	00 
  40270b:	41 54                	push   %r12
  40270d:	48 8d 84 24 48 40 00 	lea    0x4048(%rsp),%rax
  402714:	00 
  402715:	50                   	push   %rax
  402716:	4d 89 f9             	mov    %r15,%r9
  402719:	4d 89 f0             	mov    %r14,%r8
  40271c:	b9 d8 35 40 00       	mov    $0x4035d8,%ecx
  402721:	ba 00 20 00 00       	mov    $0x2000,%edx
  402726:	be 01 00 00 00       	mov    $0x1,%esi
  40272b:	4c 89 ef             	mov    %r13,%rdi
  40272e:	b8 00 00 00 00       	mov    $0x0,%eax
  402733:	e8 48 e7 ff ff       	callq  400e80 <__sprintf_chk@plt>
  402738:	b8 00 00 00 00       	mov    $0x0,%eax
  40273d:	48 c7 c1 ff ff ff ff 	mov    $0xffffffffffffffff,%rcx
  402744:	4c 89 ef             	mov    %r13,%rdi
  402747:	f2 ae                	repnz scas %es:(%rdi),%al
  402749:	48 f7 d1             	not    %rcx
  40274c:	48 8d 51 ff          	lea    -0x1(%rcx),%rdx
  402750:	4c 89 ee             	mov    %r13,%rsi
  402753:	89 ef                	mov    %ebp,%edi
  402755:	e8 b1 f9 ff ff       	callq  40210b <rio_writen>
  40275a:	48 83 c4 10          	add    $0x10,%rsp
  40275e:	48 85 c0             	test   %rax,%rax
  402761:	79 6e                	jns    4027d1 <submitr+0x428>
  402763:	48 b8 45 72 72 6f 72 	movabs $0x43203a726f727245,%rax
  40276a:	3a 20 43 
  40276d:	48 89 03             	mov    %rax,(%rbx)
  402770:	48 b8 6c 69 65 6e 74 	movabs $0x6e7520746e65696c,%rax
  402777:	20 75 6e 
  40277a:	48 89 43 08          	mov    %rax,0x8(%rbx)
  40277e:	48 b8 61 62 6c 65 20 	movabs $0x206f7420656c6261,%rax
  402785:	74 6f 20 
  402788:	48 89 43 10          	mov    %rax,0x10(%rbx)
  40278c:	48 b8 77 72 69 74 65 	movabs $0x6f74206574697277,%rax
  402793:	20 74 6f 
  402796:	48 89 43 18          	mov    %rax,0x18(%rbx)
  40279a:	48 b8 20 74 68 65 20 	movabs $0x7365722065687420,%rax
  4027a1:	72 65 73 
  4027a4:	48 89 43 20          	mov    %rax,0x20(%rbx)
  4027a8:	48 b8 75 6c 74 20 73 	movabs $0x7672657320746c75,%rax
  4027af:	65 72 76 
  4027b2:	48 89 43 28          	mov    %rax,0x28(%rbx)
  4027b6:	66 c7 43 30 65 72    	movw   $0x7265,0x30(%rbx)
  4027bc:	c6 43 32 00          	movb   $0x0,0x32(%rbx)
  4027c0:	89 ef                	mov    %ebp,%edi
  4027c2:	e8 69 e5 ff ff       	callq  400d30 <close@plt>
  4027c7:	b8 ff ff ff ff       	mov    $0xffffffff,%eax
  4027cc:	e9 1e 03 00 00       	jmpq   402aef <submitr+0x746>
  4027d1:	89 ee                	mov    %ebp,%esi
  4027d3:	48 8d 7c 24 30       	lea    0x30(%rsp),%rdi
  4027d8:	e8 ee f8 ff ff       	callq  4020cb <rio_readinitb>
  4027dd:	ba 00 20 00 00       	mov    $0x2000,%edx
  4027e2:	48 8d b4 24 40 20 00 	lea    0x2040(%rsp),%rsi
  4027e9:	00 
  4027ea:	48 8d 7c 24 30       	lea    0x30(%rsp),%rdi
  4027ef:	e8 fe f9 ff ff       	callq  4021f2 <rio_readlineb>
  4027f4:	48 85 c0             	test   %rax,%rax
  4027f7:	7f 7d                	jg     402876 <submitr+0x4cd>
  4027f9:	48 b8 45 72 72 6f 72 	movabs $0x43203a726f727245,%rax
  402800:	3a 20 43 
  402803:	48 89 03             	mov    %rax,(%rbx)
  402806:	48 b8 6c 69 65 6e 74 	movabs $0x6e7520746e65696c,%rax
  40280d:	20 75 6e 
  402810:	48 89 43 08          	mov    %rax,0x8(%rbx)
  402814:	48 b8 61 62 6c 65 20 	movabs $0x206f7420656c6261,%rax
  40281b:	74 6f 20 
  40281e:	48 89 43 10          	mov    %rax,0x10(%rbx)
  402822:	48 b8 72 65 61 64 20 	movabs $0x7269662064616572,%rax
  402829:	66 69 72 
  40282c:	48 89 43 18          	mov    %rax,0x18(%rbx)
  402830:	48 b8 73 74 20 68 65 	movabs $0x6564616568207473,%rax
  402837:	61 64 65 
  40283a:	48 89 43 20          	mov    %rax,0x20(%rbx)
  40283e:	48 b8 72 20 66 72 6f 	movabs $0x72206d6f72662072,%rax
  402845:	6d 20 72 
  402848:	48 89 43 28          	mov    %rax,0x28(%rbx)
  40284c:	48 b8 65 73 75 6c 74 	movabs $0x657320746c757365,%rax
  402853:	20 73 65 
  402856:	48 89 43 30          	mov    %rax,0x30(%rbx)
  40285a:	c7 43 38 72 76 65 72 	movl   $0x72657672,0x38(%rbx)
  402861:	c6 43 3c 00          	movb   $0x0,0x3c(%rbx)
  402865:	89 ef                	mov    %ebp,%edi
  402867:	e8 c4 e4 ff ff       	callq  400d30 <close@plt>
  40286c:	b8 ff ff ff ff       	mov    $0xffffffff,%eax
  402871:	e9 79 02 00 00       	jmpq   402aef <submitr+0x746>
  402876:	4c 8d 84 24 40 80 00 	lea    0x8040(%rsp),%r8
  40287d:	00 
  40287e:	48 8d 4c 24 1c       	lea    0x1c(%rsp),%rcx
  402883:	48 8d 94 24 40 60 00 	lea    0x6040(%rsp),%rdx
  40288a:	00 
  40288b:	be 4f 36 40 00       	mov    $0x40364f,%esi
  402890:	48 8d bc 24 40 20 00 	lea    0x2040(%rsp),%rdi
  402897:	00 
  402898:	b8 00 00 00 00       	mov    $0x0,%eax
  40289d:	e8 3e e5 ff ff       	callq  400de0 <__isoc99_sscanf@plt>
  4028a2:	e9 95 00 00 00       	jmpq   40293c <submitr+0x593>
  4028a7:	ba 00 20 00 00       	mov    $0x2000,%edx
  4028ac:	48 8d b4 24 40 20 00 	lea    0x2040(%rsp),%rsi
  4028b3:	00 
  4028b4:	48 8d 7c 24 30       	lea    0x30(%rsp),%rdi
  4028b9:	e8 34 f9 ff ff       	callq  4021f2 <rio_readlineb>
  4028be:	48 85 c0             	test   %rax,%rax
  4028c1:	7f 79                	jg     40293c <submitr+0x593>
  4028c3:	48 b8 45 72 72 6f 72 	movabs $0x43203a726f727245,%rax
  4028ca:	3a 20 43 
  4028cd:	48 89 03             	mov    %rax,(%rbx)
  4028d0:	48 b8 6c 69 65 6e 74 	movabs $0x6e7520746e65696c,%rax
  4028d7:	20 75 6e 
  4028da:	48 89 43 08          	mov    %rax,0x8(%rbx)
  4028de:	48 b8 61 62 6c 65 20 	movabs $0x206f7420656c6261,%rax
  4028e5:	74 6f 20 
  4028e8:	48 89 43 10          	mov    %rax,0x10(%rbx)
  4028ec:	48 b8 72 65 61 64 20 	movabs $0x6165682064616572,%rax
  4028f3:	68 65 61 
  4028f6:	48 89 43 18          	mov    %rax,0x18(%rbx)
  4028fa:	48 b8 64 65 72 73 20 	movabs $0x6f72662073726564,%rax
  402901:	66 72 6f 
  402904:	48 89 43 20          	mov    %rax,0x20(%rbx)
  402908:	48 b8 6d 20 74 68 65 	movabs $0x657220656874206d,%rax
  40290f:	20 72 65 
  402912:	48 89 43 28          	mov    %rax,0x28(%rbx)
  402916:	48 b8 73 75 6c 74 20 	movabs $0x72657320746c7573,%rax
  40291d:	73 65 72 
  402920:	48 89 43 30          	mov    %rax,0x30(%rbx)
  402924:	c7 43 38 76 65 72 00 	movl   $0x726576,0x38(%rbx)
  40292b:	89 ef                	mov    %ebp,%edi
  40292d:	e8 fe e3 ff ff       	callq  400d30 <close@plt>
  402932:	b8 ff ff ff ff       	mov    $0xffffffff,%eax
  402937:	e9 b3 01 00 00       	jmpq   402aef <submitr+0x746>
  40293c:	0f b6 94 24 40 20 00 	movzbl 0x2040(%rsp),%edx
  402943:	00 
  402944:	b8 0d 00 00 00       	mov    $0xd,%eax
  402949:	29 d0                	sub    %edx,%eax
  40294b:	75 1b                	jne    402968 <submitr+0x5bf>
  40294d:	0f b6 94 24 41 20 00 	movzbl 0x2041(%rsp),%edx
  402954:	00 
  402955:	b8 0a 00 00 00       	mov    $0xa,%eax
  40295a:	29 d0                	sub    %edx,%eax
  40295c:	75 0a                	jne    402968 <submitr+0x5bf>
  40295e:	0f b6 84 24 42 20 00 	movzbl 0x2042(%rsp),%eax
  402965:	00 
  402966:	f7 d8                	neg    %eax
  402968:	85 c0                	test   %eax,%eax
  40296a:	0f 85 37 ff ff ff    	jne    4028a7 <submitr+0x4fe>
  402970:	ba 00 20 00 00       	mov    $0x2000,%edx
  402975:	48 8d b4 24 40 20 00 	lea    0x2040(%rsp),%rsi
  40297c:	00 
  40297d:	48 8d 7c 24 30       	lea    0x30(%rsp),%rdi
  402982:	e8 6b f8 ff ff       	callq  4021f2 <rio_readlineb>
  402987:	48 85 c0             	test   %rax,%rax
  40298a:	0f 8f 83 00 00 00    	jg     402a13 <submitr+0x66a>
  402990:	48 b8 45 72 72 6f 72 	movabs $0x43203a726f727245,%rax
  402997:	3a 20 43 
  40299a:	48 89 03             	mov    %rax,(%rbx)
  40299d:	48 b8 6c 69 65 6e 74 	movabs $0x6e7520746e65696c,%rax
  4029a4:	20 75 6e 
  4029a7:	48 89 43 08          	mov    %rax,0x8(%rbx)
  4029ab:	48 b8 61 62 6c 65 20 	movabs $0x206f7420656c6261,%rax
  4029b2:	74 6f 20 
  4029b5:	48 89 43 10          	mov    %rax,0x10(%rbx)
  4029b9:	48 b8 72 65 61 64 20 	movabs $0x6174732064616572,%rax
  4029c0:	73 74 61 
  4029c3:	48 89 43 18          	mov    %rax,0x18(%rbx)
  4029c7:	48 b8 74 75 73 20 6d 	movabs $0x7373656d20737574,%rax
  4029ce:	65 73 73 
  4029d1:	48 89 43 20          	mov    %rax,0x20(%rbx)
  4029d5:	48 b8 61 67 65 20 66 	movabs $0x6d6f726620656761,%rax
  4029dc:	72 6f 6d 
  4029df:	48 89 43 28          	mov    %rax,0x28(%rbx)
  4029e3:	48 b8 20 72 65 73 75 	movabs $0x20746c7573657220,%rax
  4029ea:	6c 74 20 
  4029ed:	48 89 43 30          	mov    %rax,0x30(%rbx)
  4029f1:	c7 43 38 73 65 72 76 	movl   $0x76726573,0x38(%rbx)
  4029f8:	66 c7 43 3c 65 72    	movw   $0x7265,0x3c(%rbx)
  4029fe:	c6 43 3e 00          	movb   $0x0,0x3e(%rbx)
  402a02:	89 ef                	mov    %ebp,%edi
  402a04:	e8 27 e3 ff ff       	callq  400d30 <close@plt>
  402a09:	b8 ff ff ff ff       	mov    $0xffffffff,%eax
  402a0e:	e9 dc 00 00 00       	jmpq   402aef <submitr+0x746>
  402a13:	44 8b 44 24 1c       	mov    0x1c(%rsp),%r8d
  402a18:	41 81 f8 c8 00 00 00 	cmp    $0xc8,%r8d
  402a1f:	74 37                	je     402a58 <submitr+0x6af>
  402a21:	4c 8d 8c 24 40 80 00 	lea    0x8040(%rsp),%r9
  402a28:	00 
  402a29:	b9 18 36 40 00       	mov    $0x403618,%ecx
  402a2e:	48 c7 c2 ff ff ff ff 	mov    $0xffffffffffffffff,%rdx
  402a35:	be 01 00 00 00       	mov    $0x1,%esi
  402a3a:	48 89 df             	mov    %rbx,%rdi
  402a3d:	b8 00 00 00 00       	mov    $0x0,%eax
  402a42:	e8 39 e4 ff ff       	callq  400e80 <__sprintf_chk@plt>
  402a47:	89 ef                	mov    %ebp,%edi
  402a49:	e8 e2 e2 ff ff       	callq  400d30 <close@plt>
  402a4e:	b8 ff ff ff ff       	mov    $0xffffffff,%eax
  402a53:	e9 97 00 00 00       	jmpq   402aef <submitr+0x746>
  402a58:	48 8d b4 24 40 20 00 	lea    0x2040(%rsp),%rsi
  402a5f:	00 
  402a60:	48 89 df             	mov    %rbx,%rdi
  402a63:	e8 58 e2 ff ff       	callq  400cc0 <strcpy@plt>
  402a68:	89 ef                	mov    %ebp,%edi
  402a6a:	e8 c1 e2 ff ff       	callq  400d30 <close@plt>
  402a6f:	0f b6 03             	movzbl (%rbx),%eax
  402a72:	ba 4f 00 00 00       	mov    $0x4f,%edx
  402a77:	29 c2                	sub    %eax,%edx
  402a79:	75 22                	jne    402a9d <submitr+0x6f4>
  402a7b:	0f b6 4b 01          	movzbl 0x1(%rbx),%ecx
  402a7f:	b8 4b 00 00 00       	mov    $0x4b,%eax
  402a84:	29 c8                	sub    %ecx,%eax
  402a86:	75 17                	jne    402a9f <submitr+0x6f6>
  402a88:	0f b6 4b 02          	movzbl 0x2(%rbx),%ecx
  402a8c:	b8 0a 00 00 00       	mov    $0xa,%eax
  402a91:	29 c8                	sub    %ecx,%eax
  402a93:	75 0a                	jne    402a9f <submitr+0x6f6>
  402a95:	0f b6 43 03          	movzbl 0x3(%rbx),%eax
  402a99:	f7 d8                	neg    %eax
  402a9b:	eb 02                	jmp    402a9f <submitr+0x6f6>
  402a9d:	89 d0                	mov    %edx,%eax
  402a9f:	85 c0                	test   %eax,%eax
  402aa1:	74 40                	je     402ae3 <submitr+0x73a>
  402aa3:	bf 60 36 40 00       	mov    $0x403660,%edi
  402aa8:	b9 05 00 00 00       	mov    $0x5,%ecx
  402aad:	48 89 de             	mov    %rbx,%rsi
  402ab0:	f3 a6                	repz cmpsb %es:(%rdi),%ds:(%rsi)
  402ab2:	0f 97 c0             	seta   %al
  402ab5:	0f 92 c1             	setb   %cl
  402ab8:	29 c8                	sub    %ecx,%eax
  402aba:	0f be c0             	movsbl %al,%eax
  402abd:	85 c0                	test   %eax,%eax
  402abf:	74 2e                	je     402aef <submitr+0x746>
  402ac1:	85 d2                	test   %edx,%edx
  402ac3:	75 13                	jne    402ad8 <submitr+0x72f>
  402ac5:	0f b6 43 01          	movzbl 0x1(%rbx),%eax
  402ac9:	ba 4b 00 00 00       	mov    $0x4b,%edx
  402ace:	29 c2                	sub    %eax,%edx
  402ad0:	75 06                	jne    402ad8 <submitr+0x72f>
  402ad2:	0f b6 53 02          	movzbl 0x2(%rbx),%edx
  402ad6:	f7 da                	neg    %edx
  402ad8:	85 d2                	test   %edx,%edx
  402ada:	75 0e                	jne    402aea <submitr+0x741>
  402adc:	b8 00 00 00 00       	mov    $0x0,%eax
  402ae1:	eb 0c                	jmp    402aef <submitr+0x746>
  402ae3:	b8 00 00 00 00       	mov    $0x0,%eax
  402ae8:	eb 05                	jmp    402aef <submitr+0x746>
  402aea:	b8 ff ff ff ff       	mov    $0xffffffff,%eax
  402aef:	48 8b 9c 24 48 a0 00 	mov    0xa048(%rsp),%rbx
  402af6:	00 
  402af7:	64 48 33 1c 25 28 00 	xor    %fs:0x28,%rbx
  402afe:	00 00 
  402b00:	74 05                	je     402b07 <submitr+0x75e>
  402b02:	e8 e9 e1 ff ff       	callq  400cf0 <__stack_chk_fail@plt>
  402b07:	48 81 c4 58 a0 00 00 	add    $0xa058,%rsp
  402b0e:	5b                   	pop    %rbx
  402b0f:	5d                   	pop    %rbp
  402b10:	41 5c                	pop    %r12
  402b12:	41 5d                	pop    %r13
  402b14:	41 5e                	pop    %r14
  402b16:	41 5f                	pop    %r15
  402b18:	c3                   	retq   

0000000000402b19 <init_timeout>:
  402b19:	85 ff                	test   %edi,%edi
  402b1b:	74 23                	je     402b40 <init_timeout+0x27>
  402b1d:	53                   	push   %rbx
  402b1e:	89 fb                	mov    %edi,%ebx
  402b20:	85 ff                	test   %edi,%edi
  402b22:	79 05                	jns    402b29 <init_timeout+0x10>
  402b24:	bb 00 00 00 00       	mov    $0x0,%ebx
  402b29:	be dd 20 40 00       	mov    $0x4020dd,%esi
  402b2e:	bf 0e 00 00 00       	mov    $0xe,%edi
  402b33:	e8 28 e2 ff ff       	callq  400d60 <signal@plt>
  402b38:	89 df                	mov    %ebx,%edi
  402b3a:	e8 e1 e1 ff ff       	callq  400d20 <alarm@plt>
  402b3f:	5b                   	pop    %rbx
  402b40:	f3 c3                	repz retq 

0000000000402b42 <init_driver>:
  402b42:	55                   	push   %rbp
  402b43:	53                   	push   %rbx
  402b44:	48 83 ec 28          	sub    $0x28,%rsp
  402b48:	48 89 fd             	mov    %rdi,%rbp
  402b4b:	64 48 8b 04 25 28 00 	mov    %fs:0x28,%rax
  402b52:	00 00 
  402b54:	48 89 44 24 18       	mov    %rax,0x18(%rsp)
  402b59:	31 c0                	xor    %eax,%eax
  402b5b:	be 01 00 00 00       	mov    $0x1,%esi
  402b60:	bf 0d 00 00 00       	mov    $0xd,%edi
  402b65:	e8 f6 e1 ff ff       	callq  400d60 <signal@plt>
  402b6a:	be 01 00 00 00       	mov    $0x1,%esi
  402b6f:	bf 1d 00 00 00       	mov    $0x1d,%edi
  402b74:	e8 e7 e1 ff ff       	callq  400d60 <signal@plt>
  402b79:	be 01 00 00 00       	mov    $0x1,%esi
  402b7e:	bf 1d 00 00 00       	mov    $0x1d,%edi
  402b83:	e8 d8 e1 ff ff       	callq  400d60 <signal@plt>
  402b88:	ba 00 00 00 00       	mov    $0x0,%edx
  402b8d:	be 01 00 00 00       	mov    $0x1,%esi
  402b92:	bf 02 00 00 00       	mov    $0x2,%edi
  402b97:	e8 f4 e2 ff ff       	callq  400e90 <socket@plt>
  402b9c:	85 c0                	test   %eax,%eax
  402b9e:	79 4f                	jns    402bef <init_driver+0xad>
  402ba0:	48 b8 45 72 72 6f 72 	movabs $0x43203a726f727245,%rax
  402ba7:	3a 20 43 
  402baa:	48 89 45 00          	mov    %rax,0x0(%rbp)
  402bae:	48 b8 6c 69 65 6e 74 	movabs $0x6e7520746e65696c,%rax
  402bb5:	20 75 6e 
  402bb8:	48 89 45 08          	mov    %rax,0x8(%rbp)
  402bbc:	48 b8 61 62 6c 65 20 	movabs $0x206f7420656c6261,%rax
  402bc3:	74 6f 20 
  402bc6:	48 89 45 10          	mov    %rax,0x10(%rbp)
  402bca:	48 b8 63 72 65 61 74 	movabs $0x7320657461657263,%rax
  402bd1:	65 20 73 
  402bd4:	48 89 45 18          	mov    %rax,0x18(%rbp)
  402bd8:	c7 45 20 6f 63 6b 65 	movl   $0x656b636f,0x20(%rbp)
  402bdf:	66 c7 45 24 74 00    	movw   $0x74,0x24(%rbp)
  402be5:	b8 ff ff ff ff       	mov    $0xffffffff,%eax
  402bea:	e9 2a 01 00 00       	jmpq   402d19 <init_driver+0x1d7>
  402bef:	89 c3                	mov    %eax,%ebx
  402bf1:	bf 9c 31 40 00       	mov    $0x40319c,%edi
  402bf6:	e8 75 e1 ff ff       	callq  400d70 <gethostbyname@plt>
  402bfb:	48 85 c0             	test   %rax,%rax
  402bfe:	75 68                	jne    402c68 <init_driver+0x126>
  402c00:	48 b8 45 72 72 6f 72 	movabs $0x44203a726f727245,%rax
  402c07:	3a 20 44 
  402c0a:	48 89 45 00          	mov    %rax,0x0(%rbp)
  402c0e:	48 b8 4e 53 20 69 73 	movabs $0x6e7520736920534e,%rax
  402c15:	20 75 6e 
  402c18:	48 89 45 08          	mov    %rax,0x8(%rbp)
  402c1c:	48 b8 61 62 6c 65 20 	movabs $0x206f7420656c6261,%rax
  402c23:	74 6f 20 
  402c26:	48 89 45 10          	mov    %rax,0x10(%rbp)
  402c2a:	48 b8 72 65 73 6f 6c 	movabs $0x2065766c6f736572,%rax
  402c31:	76 65 20 
  402c34:	48 89 45 18          	mov    %rax,0x18(%rbp)
  402c38:	48 b8 73 65 72 76 65 	movabs $0x6120726576726573,%rax
  402c3f:	72 20 61 
  402c42:	48 89 45 20          	mov    %rax,0x20(%rbp)
  402c46:	c7 45 28 64 64 72 65 	movl   $0x65726464,0x28(%rbp)
  402c4d:	66 c7 45 2c 73 73    	movw   $0x7373,0x2c(%rbp)
  402c53:	c6 45 2e 00          	movb   $0x0,0x2e(%rbp)
  402c57:	89 df                	mov    %ebx,%edi
  402c59:	e8 d2 e0 ff ff       	callq  400d30 <close@plt>
  402c5e:	b8 ff ff ff ff       	mov    $0xffffffff,%eax
  402c63:	e9 b1 00 00 00       	jmpq   402d19 <init_driver+0x1d7>
  402c68:	48 c7 04 24 00 00 00 	movq   $0x0,(%rsp)
  402c6f:	00 
  402c70:	48 c7 44 24 08 00 00 	movq   $0x0,0x8(%rsp)
  402c77:	00 00 
  402c79:	66 c7 04 24 02 00    	movw   $0x2,(%rsp)
  402c7f:	48 63 50 14          	movslq 0x14(%rax),%rdx
  402c83:	48 8b 40 18          	mov    0x18(%rax),%rax
  402c87:	48 8b 30             	mov    (%rax),%rsi
  402c8a:	48 8d 7c 24 04       	lea    0x4(%rsp),%rdi
  402c8f:	b9 0c 00 00 00       	mov    $0xc,%ecx
  402c94:	e8 e7 e0 ff ff       	callq  400d80 <__memmove_chk@plt>
  402c99:	66 c7 44 24 02 55 fc 	movw   $0xfc55,0x2(%rsp)
  402ca0:	ba 10 00 00 00       	mov    $0x10,%edx
  402ca5:	48 89 e6             	mov    %rsp,%rsi
  402ca8:	89 df                	mov    %ebx,%edi
  402caa:	e8 b1 e1 ff ff       	callq  400e60 <connect@plt>
  402caf:	85 c0                	test   %eax,%eax
  402cb1:	79 50                	jns    402d03 <init_driver+0x1c1>
  402cb3:	48 b8 45 72 72 6f 72 	movabs $0x55203a726f727245,%rax
  402cba:	3a 20 55 
  402cbd:	48 89 45 00          	mov    %rax,0x0(%rbp)
  402cc1:	48 b8 6e 61 62 6c 65 	movabs $0x6f7420656c62616e,%rax
  402cc8:	20 74 6f 
  402ccb:	48 89 45 08          	mov    %rax,0x8(%rbp)
  402ccf:	48 b8 20 63 6f 6e 6e 	movabs $0x7463656e6e6f6320,%rax
  402cd6:	65 63 74 
  402cd9:	48 89 45 10          	mov    %rax,0x10(%rbp)
  402cdd:	48 b8 20 74 6f 20 73 	movabs $0x76726573206f7420,%rax
  402ce4:	65 72 76 
  402ce7:	48 89 45 18          	mov    %rax,0x18(%rbp)
  402ceb:	66 c7 45 20 65 72    	movw   $0x7265,0x20(%rbp)
  402cf1:	c6 45 22 00          	movb   $0x0,0x22(%rbp)
  402cf5:	89 df                	mov    %ebx,%edi
  402cf7:	e8 34 e0 ff ff       	callq  400d30 <close@plt>
  402cfc:	b8 ff ff ff ff       	mov    $0xffffffff,%eax
  402d01:	eb 16                	jmp    402d19 <init_driver+0x1d7>
  402d03:	89 df                	mov    %ebx,%edi
  402d05:	e8 26 e0 ff ff       	callq  400d30 <close@plt>
  402d0a:	66 c7 45 00 4f 4b    	movw   $0x4b4f,0x0(%rbp)
  402d10:	c6 45 02 00          	movb   $0x0,0x2(%rbp)
  402d14:	b8 00 00 00 00       	mov    $0x0,%eax
  402d19:	48 8b 4c 24 18       	mov    0x18(%rsp),%rcx
  402d1e:	64 48 33 0c 25 28 00 	xor    %fs:0x28,%rcx
  402d25:	00 00 
  402d27:	74 05                	je     402d2e <init_driver+0x1ec>
  402d29:	e8 c2 df ff ff       	callq  400cf0 <__stack_chk_fail@plt>
  402d2e:	48 83 c4 28          	add    $0x28,%rsp
  402d32:	5b                   	pop    %rbx
  402d33:	5d                   	pop    %rbp
  402d34:	c3                   	retq   

0000000000402d35 <driver_post>:
  402d35:	53                   	push   %rbx
  402d36:	4c 89 cb             	mov    %r9,%rbx
  402d39:	45 85 c0             	test   %r8d,%r8d
  402d3c:	74 27                	je     402d65 <driver_post+0x30>
  402d3e:	48 89 ca             	mov    %rcx,%rdx
  402d41:	be 65 36 40 00       	mov    $0x403665,%esi
  402d46:	bf 01 00 00 00       	mov    $0x1,%edi
  402d4b:	b8 00 00 00 00       	mov    $0x0,%eax
  402d50:	e8 ab e0 ff ff       	callq  400e00 <__printf_chk@plt>
  402d55:	66 c7 03 4f 4b       	movw   $0x4b4f,(%rbx)
  402d5a:	c6 43 02 00          	movb   $0x0,0x2(%rbx)
  402d5e:	b8 00 00 00 00       	mov    $0x0,%eax
  402d63:	eb 3f                	jmp    402da4 <driver_post+0x6f>
  402d65:	48 85 ff             	test   %rdi,%rdi
  402d68:	74 2c                	je     402d96 <driver_post+0x61>
  402d6a:	80 3f 00             	cmpb   $0x0,(%rdi)
  402d6d:	74 27                	je     402d96 <driver_post+0x61>
  402d6f:	48 83 ec 08          	sub    $0x8,%rsp
  402d73:	41 51                	push   %r9
  402d75:	49 89 c9             	mov    %rcx,%r9
  402d78:	49 89 d0             	mov    %rdx,%r8
  402d7b:	48 89 f9             	mov    %rdi,%rcx
  402d7e:	48 89 f2             	mov    %rsi,%rdx
  402d81:	be fc 55 00 00       	mov    $0x55fc,%esi
  402d86:	bf 9c 31 40 00       	mov    $0x40319c,%edi
  402d8b:	e8 19 f6 ff ff       	callq  4023a9 <submitr>
  402d90:	48 83 c4 10          	add    $0x10,%rsp
  402d94:	eb 0e                	jmp    402da4 <driver_post+0x6f>
  402d96:	66 c7 03 4f 4b       	movw   $0x4b4f,(%rbx)
  402d9b:	c6 43 02 00          	movb   $0x0,0x2(%rbx)
  402d9f:	b8 00 00 00 00       	mov    $0x0,%eax
  402da4:	5b                   	pop    %rbx
  402da5:	c3                   	retq   

0000000000402da6 <check>:
  402da6:	89 f8                	mov    %edi,%eax
  402da8:	c1 e8 1c             	shr    $0x1c,%eax
  402dab:	85 c0                	test   %eax,%eax
  402dad:	74 1d                	je     402dcc <check+0x26>
  402daf:	b9 00 00 00 00       	mov    $0x0,%ecx
  402db4:	eb 0b                	jmp    402dc1 <check+0x1b>
  402db6:	89 f8                	mov    %edi,%eax
  402db8:	d3 e8                	shr    %cl,%eax
  402dba:	3c 0a                	cmp    $0xa,%al
  402dbc:	74 14                	je     402dd2 <check+0x2c>
  402dbe:	83 c1 08             	add    $0x8,%ecx
  402dc1:	83 f9 1f             	cmp    $0x1f,%ecx
  402dc4:	7e f0                	jle    402db6 <check+0x10>
  402dc6:	b8 01 00 00 00       	mov    $0x1,%eax
  402dcb:	c3                   	retq   
  402dcc:	b8 00 00 00 00       	mov    $0x0,%eax
  402dd1:	c3                   	retq   
  402dd2:	b8 00 00 00 00       	mov    $0x0,%eax
  402dd7:	c3                   	retq   

0000000000402dd8 <gencookie>:
  402dd8:	53                   	push   %rbx
  402dd9:	83 c7 01             	add    $0x1,%edi
  402ddc:	e8 bf de ff ff       	callq  400ca0 <srandom@plt>
  402de1:	e8 da df ff ff       	callq  400dc0 <random@plt>
  402de6:	89 c3                	mov    %eax,%ebx
  402de8:	89 c7                	mov    %eax,%edi
  402dea:	e8 b7 ff ff ff       	callq  402da6 <check>
  402def:	85 c0                	test   %eax,%eax
  402df1:	74 ee                	je     402de1 <gencookie+0x9>
  402df3:	89 d8                	mov    %ebx,%eax
  402df5:	5b                   	pop    %rbx
  402df6:	c3                   	retq   
  402df7:	66 0f 1f 84 00 00 00 	nopw   0x0(%rax,%rax,1)
  402dfe:	00 00 

0000000000402e00 <__libc_csu_init>:
  402e00:	41 57                	push   %r15
  402e02:	41 56                	push   %r14
  402e04:	41 89 ff             	mov    %edi,%r15d
  402e07:	41 55                	push   %r13
  402e09:	41 54                	push   %r12
  402e0b:	4c 8d 25 fe 0f 20 00 	lea    0x200ffe(%rip),%r12        # 603e10 <__frame_dummy_init_array_entry>
  402e12:	55                   	push   %rbp
  402e13:	48 8d 2d fe 0f 20 00 	lea    0x200ffe(%rip),%rbp        # 603e18 <__init_array_end>
  402e1a:	53                   	push   %rbx
  402e1b:	49 89 f6             	mov    %rsi,%r14
  402e1e:	49 89 d5             	mov    %rdx,%r13
  402e21:	4c 29 e5             	sub    %r12,%rbp
  402e24:	48 83 ec 08          	sub    $0x8,%rsp
  402e28:	48 c1 fd 03          	sar    $0x3,%rbp
  402e2c:	e8 17 de ff ff       	callq  400c48 <_init>
  402e31:	48 85 ed             	test   %rbp,%rbp
  402e34:	74 20                	je     402e56 <__libc_csu_init+0x56>
  402e36:	31 db                	xor    %ebx,%ebx
  402e38:	0f 1f 84 00 00 00 00 	nopl   0x0(%rax,%rax,1)
  402e3f:	00 
  402e40:	4c 89 ea             	mov    %r13,%rdx
  402e43:	4c 89 f6             	mov    %r14,%rsi
  402e46:	44 89 ff             	mov    %r15d,%edi
  402e49:	41 ff 14 dc          	callq  *(%r12,%rbx,8)
  402e4d:	48 83 c3 01          	add    $0x1,%rbx
  402e51:	48 39 eb             	cmp    %rbp,%rbx
  402e54:	75 ea                	jne    402e40 <__libc_csu_init+0x40>
  402e56:	48 83 c4 08          	add    $0x8,%rsp
  402e5a:	5b                   	pop    %rbx
  402e5b:	5d                   	pop    %rbp
  402e5c:	41 5c                	pop    %r12
  402e5e:	41 5d                	pop    %r13
  402e60:	41 5e                	pop    %r14
  402e62:	41 5f                	pop    %r15
  402e64:	c3                   	retq   
  402e65:	90                   	nop
  402e66:	66 2e 0f 1f 84 00 00 	nopw   %cs:0x0(%rax,%rax,1)
  402e6d:	00 00 00 

0000000000402e70 <__libc_csu_fini>:
  402e70:	f3 c3                	repz retq 

Disassembly of section .fini:

0000000000402e74 <_fini>:
  402e74:	48 83 ec 08          	sub    $0x8,%rsp
  402e78:	48 83 c4 08          	add    $0x8,%rsp
  402e7c:	c3                   	retq   
