
rtarget:     file format elf64-x86-64


Disassembly of section .init:

0000000000400c48 <_init>:
  400c48:	48 83 ec 08          	sub    $0x8,%rsp
  400c4c:	48 8b 05 a5 43 20 00 	mov    0x2043a5(%rip),%rax        # 604ff8 <_DYNAMIC+0x1d0>
  400c53:	48 85 c0             	test   %rax,%rax
  400c56:	74 05                	je     400c5d <_init+0x15>
  400c58:	e8 43 02 00 00       	callq  400ea0 <socket@plt+0x10>
  400c5d:	48 83 c4 08          	add    $0x8,%rsp
  400c61:	c3                   	retq   

Disassembly of section .plt:

0000000000400c70 <strcasecmp@plt-0x10>:
  400c70:	ff 35 92 43 20 00    	pushq  0x204392(%rip)        # 605008 <_GLOBAL_OFFSET_TABLE_+0x8>
  400c76:	ff 25 94 43 20 00    	jmpq   *0x204394(%rip)        # 605010 <_GLOBAL_OFFSET_TABLE_+0x10>
  400c7c:	0f 1f 40 00          	nopl   0x0(%rax)

0000000000400c80 <strcasecmp@plt>:
  400c80:	ff 25 92 43 20 00    	jmpq   *0x204392(%rip)        # 605018 <_GLOBAL_OFFSET_TABLE_+0x18>
  400c86:	68 00 00 00 00       	pushq  $0x0
  400c8b:	e9 e0 ff ff ff       	jmpq   400c70 <_init+0x28>

0000000000400c90 <__errno_location@plt>:
  400c90:	ff 25 8a 43 20 00    	jmpq   *0x20438a(%rip)        # 605020 <_GLOBAL_OFFSET_TABLE_+0x20>
  400c96:	68 01 00 00 00       	pushq  $0x1
  400c9b:	e9 d0 ff ff ff       	jmpq   400c70 <_init+0x28>

0000000000400ca0 <srandom@plt>:
  400ca0:	ff 25 82 43 20 00    	jmpq   *0x204382(%rip)        # 605028 <_GLOBAL_OFFSET_TABLE_+0x28>
  400ca6:	68 02 00 00 00       	pushq  $0x2
  400cab:	e9 c0 ff ff ff       	jmpq   400c70 <_init+0x28>

0000000000400cb0 <strncmp@plt>:
  400cb0:	ff 25 7a 43 20 00    	jmpq   *0x20437a(%rip)        # 605030 <_GLOBAL_OFFSET_TABLE_+0x30>
  400cb6:	68 03 00 00 00       	pushq  $0x3
  400cbb:	e9 b0 ff ff ff       	jmpq   400c70 <_init+0x28>

0000000000400cc0 <strcpy@plt>:
  400cc0:	ff 25 72 43 20 00    	jmpq   *0x204372(%rip)        # 605038 <_GLOBAL_OFFSET_TABLE_+0x38>
  400cc6:	68 04 00 00 00       	pushq  $0x4
  400ccb:	e9 a0 ff ff ff       	jmpq   400c70 <_init+0x28>

0000000000400cd0 <puts@plt>:
  400cd0:	ff 25 6a 43 20 00    	jmpq   *0x20436a(%rip)        # 605040 <_GLOBAL_OFFSET_TABLE_+0x40>
  400cd6:	68 05 00 00 00       	pushq  $0x5
  400cdb:	e9 90 ff ff ff       	jmpq   400c70 <_init+0x28>

0000000000400ce0 <write@plt>:
  400ce0:	ff 25 62 43 20 00    	jmpq   *0x204362(%rip)        # 605048 <_GLOBAL_OFFSET_TABLE_+0x48>
  400ce6:	68 06 00 00 00       	pushq  $0x6
  400ceb:	e9 80 ff ff ff       	jmpq   400c70 <_init+0x28>

0000000000400cf0 <__stack_chk_fail@plt>:
  400cf0:	ff 25 5a 43 20 00    	jmpq   *0x20435a(%rip)        # 605050 <_GLOBAL_OFFSET_TABLE_+0x50>
  400cf6:	68 07 00 00 00       	pushq  $0x7
  400cfb:	e9 70 ff ff ff       	jmpq   400c70 <_init+0x28>

0000000000400d00 <mmap@plt>:
  400d00:	ff 25 52 43 20 00    	jmpq   *0x204352(%rip)        # 605058 <_GLOBAL_OFFSET_TABLE_+0x58>
  400d06:	68 08 00 00 00       	pushq  $0x8
  400d0b:	e9 60 ff ff ff       	jmpq   400c70 <_init+0x28>

0000000000400d10 <memset@plt>:
  400d10:	ff 25 4a 43 20 00    	jmpq   *0x20434a(%rip)        # 605060 <_GLOBAL_OFFSET_TABLE_+0x60>
  400d16:	68 09 00 00 00       	pushq  $0x9
  400d1b:	e9 50 ff ff ff       	jmpq   400c70 <_init+0x28>

0000000000400d20 <alarm@plt>:
  400d20:	ff 25 42 43 20 00    	jmpq   *0x204342(%rip)        # 605068 <_GLOBAL_OFFSET_TABLE_+0x68>
  400d26:	68 0a 00 00 00       	pushq  $0xa
  400d2b:	e9 40 ff ff ff       	jmpq   400c70 <_init+0x28>

0000000000400d30 <close@plt>:
  400d30:	ff 25 3a 43 20 00    	jmpq   *0x20433a(%rip)        # 605070 <_GLOBAL_OFFSET_TABLE_+0x70>
  400d36:	68 0b 00 00 00       	pushq  $0xb
  400d3b:	e9 30 ff ff ff       	jmpq   400c70 <_init+0x28>

0000000000400d40 <read@plt>:
  400d40:	ff 25 32 43 20 00    	jmpq   *0x204332(%rip)        # 605078 <_GLOBAL_OFFSET_TABLE_+0x78>
  400d46:	68 0c 00 00 00       	pushq  $0xc
  400d4b:	e9 20 ff ff ff       	jmpq   400c70 <_init+0x28>

0000000000400d50 <__libc_start_main@plt>:
  400d50:	ff 25 2a 43 20 00    	jmpq   *0x20432a(%rip)        # 605080 <_GLOBAL_OFFSET_TABLE_+0x80>
  400d56:	68 0d 00 00 00       	pushq  $0xd
  400d5b:	e9 10 ff ff ff       	jmpq   400c70 <_init+0x28>

0000000000400d60 <signal@plt>:
  400d60:	ff 25 22 43 20 00    	jmpq   *0x204322(%rip)        # 605088 <_GLOBAL_OFFSET_TABLE_+0x88>
  400d66:	68 0e 00 00 00       	pushq  $0xe
  400d6b:	e9 00 ff ff ff       	jmpq   400c70 <_init+0x28>

0000000000400d70 <gethostbyname@plt>:
  400d70:	ff 25 1a 43 20 00    	jmpq   *0x20431a(%rip)        # 605090 <_GLOBAL_OFFSET_TABLE_+0x90>
  400d76:	68 0f 00 00 00       	pushq  $0xf
  400d7b:	e9 f0 fe ff ff       	jmpq   400c70 <_init+0x28>

0000000000400d80 <__memmove_chk@plt>:
  400d80:	ff 25 12 43 20 00    	jmpq   *0x204312(%rip)        # 605098 <_GLOBAL_OFFSET_TABLE_+0x98>
  400d86:	68 10 00 00 00       	pushq  $0x10
  400d8b:	e9 e0 fe ff ff       	jmpq   400c70 <_init+0x28>

0000000000400d90 <strtol@plt>:
  400d90:	ff 25 0a 43 20 00    	jmpq   *0x20430a(%rip)        # 6050a0 <_GLOBAL_OFFSET_TABLE_+0xa0>
  400d96:	68 11 00 00 00       	pushq  $0x11
  400d9b:	e9 d0 fe ff ff       	jmpq   400c70 <_init+0x28>

0000000000400da0 <memcpy@plt>:
  400da0:	ff 25 02 43 20 00    	jmpq   *0x204302(%rip)        # 6050a8 <_GLOBAL_OFFSET_TABLE_+0xa8>
  400da6:	68 12 00 00 00       	pushq  $0x12
  400dab:	e9 c0 fe ff ff       	jmpq   400c70 <_init+0x28>

0000000000400db0 <time@plt>:
  400db0:	ff 25 fa 42 20 00    	jmpq   *0x2042fa(%rip)        # 6050b0 <_GLOBAL_OFFSET_TABLE_+0xb0>
  400db6:	68 13 00 00 00       	pushq  $0x13
  400dbb:	e9 b0 fe ff ff       	jmpq   400c70 <_init+0x28>

0000000000400dc0 <random@plt>:
  400dc0:	ff 25 f2 42 20 00    	jmpq   *0x2042f2(%rip)        # 6050b8 <_GLOBAL_OFFSET_TABLE_+0xb8>
  400dc6:	68 14 00 00 00       	pushq  $0x14
  400dcb:	e9 a0 fe ff ff       	jmpq   400c70 <_init+0x28>

0000000000400dd0 <_IO_getc@plt>:
  400dd0:	ff 25 ea 42 20 00    	jmpq   *0x2042ea(%rip)        # 6050c0 <_GLOBAL_OFFSET_TABLE_+0xc0>
  400dd6:	68 15 00 00 00       	pushq  $0x15
  400ddb:	e9 90 fe ff ff       	jmpq   400c70 <_init+0x28>

0000000000400de0 <__isoc99_sscanf@plt>:
  400de0:	ff 25 e2 42 20 00    	jmpq   *0x2042e2(%rip)        # 6050c8 <_GLOBAL_OFFSET_TABLE_+0xc8>
  400de6:	68 16 00 00 00       	pushq  $0x16
  400deb:	e9 80 fe ff ff       	jmpq   400c70 <_init+0x28>

0000000000400df0 <munmap@plt>:
  400df0:	ff 25 da 42 20 00    	jmpq   *0x2042da(%rip)        # 6050d0 <_GLOBAL_OFFSET_TABLE_+0xd0>
  400df6:	68 17 00 00 00       	pushq  $0x17
  400dfb:	e9 70 fe ff ff       	jmpq   400c70 <_init+0x28>

0000000000400e00 <__printf_chk@plt>:
  400e00:	ff 25 d2 42 20 00    	jmpq   *0x2042d2(%rip)        # 6050d8 <_GLOBAL_OFFSET_TABLE_+0xd8>
  400e06:	68 18 00 00 00       	pushq  $0x18
  400e0b:	e9 60 fe ff ff       	jmpq   400c70 <_init+0x28>

0000000000400e10 <fopen@plt>:
  400e10:	ff 25 ca 42 20 00    	jmpq   *0x2042ca(%rip)        # 6050e0 <_GLOBAL_OFFSET_TABLE_+0xe0>
  400e16:	68 19 00 00 00       	pushq  $0x19
  400e1b:	e9 50 fe ff ff       	jmpq   400c70 <_init+0x28>

0000000000400e20 <getopt@plt>:
  400e20:	ff 25 c2 42 20 00    	jmpq   *0x2042c2(%rip)        # 6050e8 <_GLOBAL_OFFSET_TABLE_+0xe8>
  400e26:	68 1a 00 00 00       	pushq  $0x1a
  400e2b:	e9 40 fe ff ff       	jmpq   400c70 <_init+0x28>

0000000000400e30 <strtoul@plt>:
  400e30:	ff 25 ba 42 20 00    	jmpq   *0x2042ba(%rip)        # 6050f0 <_GLOBAL_OFFSET_TABLE_+0xf0>
  400e36:	68 1b 00 00 00       	pushq  $0x1b
  400e3b:	e9 30 fe ff ff       	jmpq   400c70 <_init+0x28>

0000000000400e40 <gethostname@plt>:
  400e40:	ff 25 b2 42 20 00    	jmpq   *0x2042b2(%rip)        # 6050f8 <_GLOBAL_OFFSET_TABLE_+0xf8>
  400e46:	68 1c 00 00 00       	pushq  $0x1c
  400e4b:	e9 20 fe ff ff       	jmpq   400c70 <_init+0x28>

0000000000400e50 <exit@plt>:
  400e50:	ff 25 aa 42 20 00    	jmpq   *0x2042aa(%rip)        # 605100 <_GLOBAL_OFFSET_TABLE_+0x100>
  400e56:	68 1d 00 00 00       	pushq  $0x1d
  400e5b:	e9 10 fe ff ff       	jmpq   400c70 <_init+0x28>

0000000000400e60 <connect@plt>:
  400e60:	ff 25 a2 42 20 00    	jmpq   *0x2042a2(%rip)        # 605108 <_GLOBAL_OFFSET_TABLE_+0x108>
  400e66:	68 1e 00 00 00       	pushq  $0x1e
  400e6b:	e9 00 fe ff ff       	jmpq   400c70 <_init+0x28>

0000000000400e70 <__fprintf_chk@plt>:
  400e70:	ff 25 9a 42 20 00    	jmpq   *0x20429a(%rip)        # 605110 <_GLOBAL_OFFSET_TABLE_+0x110>
  400e76:	68 1f 00 00 00       	pushq  $0x1f
  400e7b:	e9 f0 fd ff ff       	jmpq   400c70 <_init+0x28>

0000000000400e80 <__sprintf_chk@plt>:
  400e80:	ff 25 92 42 20 00    	jmpq   *0x204292(%rip)        # 605118 <_GLOBAL_OFFSET_TABLE_+0x118>
  400e86:	68 20 00 00 00       	pushq  $0x20
  400e8b:	e9 e0 fd ff ff       	jmpq   400c70 <_init+0x28>

0000000000400e90 <socket@plt>:
  400e90:	ff 25 8a 42 20 00    	jmpq   *0x20428a(%rip)        # 605120 <_GLOBAL_OFFSET_TABLE_+0x120>
  400e96:	68 21 00 00 00       	pushq  $0x21
  400e9b:	e9 d0 fd ff ff       	jmpq   400c70 <_init+0x28>

Disassembly of section .plt.got:

0000000000400ea0 <.plt.got>:
  400ea0:	ff 25 52 41 20 00    	jmpq   *0x204152(%rip)        # 604ff8 <_DYNAMIC+0x1d0>
  400ea6:	66 90                	xchg   %ax,%ax

Disassembly of section .text:

0000000000400eb0 <_start>:
  400eb0:	31 ed                	xor    %ebp,%ebp
  400eb2:	49 89 d1             	mov    %rdx,%r9
  400eb5:	5e                   	pop    %rsi
  400eb6:	48 89 e2             	mov    %rsp,%rdx
  400eb9:	48 83 e4 f0          	and    $0xfffffffffffffff0,%rsp
  400ebd:	50                   	push   %rax
  400ebe:	54                   	push   %rsp
  400ebf:	49 c7 c0 90 2f 40 00 	mov    $0x402f90,%r8
  400ec6:	48 c7 c1 20 2f 40 00 	mov    $0x402f20,%rcx
  400ecd:	48 c7 c7 b5 11 40 00 	mov    $0x4011b5,%rdi
  400ed4:	e8 77 fe ff ff       	callq  400d50 <__libc_start_main@plt>
  400ed9:	f4                   	hlt    
  400eda:	66 0f 1f 44 00 00    	nopw   0x0(%rax,%rax,1)

0000000000400ee0 <deregister_tm_clones>:
  400ee0:	b8 b7 54 60 00       	mov    $0x6054b7,%eax
  400ee5:	55                   	push   %rbp
  400ee6:	48 2d b0 54 60 00    	sub    $0x6054b0,%rax
  400eec:	48 83 f8 0e          	cmp    $0xe,%rax
  400ef0:	48 89 e5             	mov    %rsp,%rbp
  400ef3:	76 1b                	jbe    400f10 <deregister_tm_clones+0x30>
  400ef5:	b8 00 00 00 00       	mov    $0x0,%eax
  400efa:	48 85 c0             	test   %rax,%rax
  400efd:	74 11                	je     400f10 <deregister_tm_clones+0x30>
  400eff:	5d                   	pop    %rbp
  400f00:	bf b0 54 60 00       	mov    $0x6054b0,%edi
  400f05:	ff e0                	jmpq   *%rax
  400f07:	66 0f 1f 84 00 00 00 	nopw   0x0(%rax,%rax,1)
  400f0e:	00 00 
  400f10:	5d                   	pop    %rbp
  400f11:	c3                   	retq   
  400f12:	0f 1f 40 00          	nopl   0x0(%rax)
  400f16:	66 2e 0f 1f 84 00 00 	nopw   %cs:0x0(%rax,%rax,1)
  400f1d:	00 00 00 

0000000000400f20 <register_tm_clones>:
  400f20:	be b0 54 60 00       	mov    $0x6054b0,%esi
  400f25:	55                   	push   %rbp
  400f26:	48 81 ee b0 54 60 00 	sub    $0x6054b0,%rsi
  400f2d:	48 c1 fe 03          	sar    $0x3,%rsi
  400f31:	48 89 e5             	mov    %rsp,%rbp
  400f34:	48 89 f0             	mov    %rsi,%rax
  400f37:	48 c1 e8 3f          	shr    $0x3f,%rax
  400f3b:	48 01 c6             	add    %rax,%rsi
  400f3e:	48 d1 fe             	sar    %rsi
  400f41:	74 15                	je     400f58 <register_tm_clones+0x38>
  400f43:	b8 00 00 00 00       	mov    $0x0,%eax
  400f48:	48 85 c0             	test   %rax,%rax
  400f4b:	74 0b                	je     400f58 <register_tm_clones+0x38>
  400f4d:	5d                   	pop    %rbp
  400f4e:	bf b0 54 60 00       	mov    $0x6054b0,%edi
  400f53:	ff e0                	jmpq   *%rax
  400f55:	0f 1f 00             	nopl   (%rax)
  400f58:	5d                   	pop    %rbp
  400f59:	c3                   	retq   
  400f5a:	66 0f 1f 44 00 00    	nopw   0x0(%rax,%rax,1)

0000000000400f60 <__do_global_dtors_aux>:
  400f60:	80 3d 81 45 20 00 00 	cmpb   $0x0,0x204581(%rip)        # 6054e8 <completed.7594>
  400f67:	75 11                	jne    400f7a <__do_global_dtors_aux+0x1a>
  400f69:	55                   	push   %rbp
  400f6a:	48 89 e5             	mov    %rsp,%rbp
  400f6d:	e8 6e ff ff ff       	callq  400ee0 <deregister_tm_clones>
  400f72:	5d                   	pop    %rbp
  400f73:	c6 05 6e 45 20 00 01 	movb   $0x1,0x20456e(%rip)        # 6054e8 <completed.7594>
  400f7a:	f3 c3                	repz retq 
  400f7c:	0f 1f 40 00          	nopl   0x0(%rax)

0000000000400f80 <frame_dummy>:
  400f80:	bf 20 4e 60 00       	mov    $0x604e20,%edi
  400f85:	48 83 3f 00          	cmpq   $0x0,(%rdi)
  400f89:	75 05                	jne    400f90 <frame_dummy+0x10>
  400f8b:	eb 93                	jmp    400f20 <register_tm_clones>
  400f8d:	0f 1f 00             	nopl   (%rax)
  400f90:	b8 00 00 00 00       	mov    $0x0,%eax
  400f95:	48 85 c0             	test   %rax,%rax
  400f98:	74 f1                	je     400f8b <frame_dummy+0xb>
  400f9a:	55                   	push   %rbp
  400f9b:	48 89 e5             	mov    %rsp,%rbp
  400f9e:	ff d0                	callq  *%rax
  400fa0:	5d                   	pop    %rbp
  400fa1:	e9 7a ff ff ff       	jmpq   400f20 <register_tm_clones>

0000000000400fa6 <usage>:
  400fa6:	48 83 ec 08          	sub    $0x8,%rsp
  400faa:	48 89 fa             	mov    %rdi,%rdx
  400fad:	83 3d 74 45 20 00 00 	cmpl   $0x0,0x204574(%rip)        # 605528 <is_checker>
  400fb4:	74 3e                	je     400ff4 <usage+0x4e>
  400fb6:	be a8 2f 40 00       	mov    $0x402fa8,%esi
  400fbb:	bf 01 00 00 00       	mov    $0x1,%edi
  400fc0:	b8 00 00 00 00       	mov    $0x0,%eax
  400fc5:	e8 36 fe ff ff       	callq  400e00 <__printf_chk@plt>
  400fca:	bf e0 2f 40 00       	mov    $0x402fe0,%edi
  400fcf:	e8 fc fc ff ff       	callq  400cd0 <puts@plt>
  400fd4:	bf 58 31 40 00       	mov    $0x403158,%edi
  400fd9:	e8 f2 fc ff ff       	callq  400cd0 <puts@plt>
  400fde:	bf 08 30 40 00       	mov    $0x403008,%edi
  400fe3:	e8 e8 fc ff ff       	callq  400cd0 <puts@plt>
  400fe8:	bf 72 31 40 00       	mov    $0x403172,%edi
  400fed:	e8 de fc ff ff       	callq  400cd0 <puts@plt>
  400ff2:	eb 32                	jmp    401026 <usage+0x80>
  400ff4:	be 8e 31 40 00       	mov    $0x40318e,%esi
  400ff9:	bf 01 00 00 00       	mov    $0x1,%edi
  400ffe:	b8 00 00 00 00       	mov    $0x0,%eax
  401003:	e8 f8 fd ff ff       	callq  400e00 <__printf_chk@plt>
  401008:	bf 30 30 40 00       	mov    $0x403030,%edi
  40100d:	e8 be fc ff ff       	callq  400cd0 <puts@plt>
  401012:	bf 58 30 40 00       	mov    $0x403058,%edi
  401017:	e8 b4 fc ff ff       	callq  400cd0 <puts@plt>
  40101c:	bf ac 31 40 00       	mov    $0x4031ac,%edi
  401021:	e8 aa fc ff ff       	callq  400cd0 <puts@plt>
  401026:	bf 00 00 00 00       	mov    $0x0,%edi
  40102b:	e8 20 fe ff ff       	callq  400e50 <exit@plt>

0000000000401030 <initialize_target>:
  401030:	55                   	push   %rbp
  401031:	53                   	push   %rbx
  401032:	48 81 ec 18 21 00 00 	sub    $0x2118,%rsp
  401039:	89 f5                	mov    %esi,%ebp
  40103b:	64 48 8b 04 25 28 00 	mov    %fs:0x28,%rax
  401042:	00 00 
  401044:	48 89 84 24 08 21 00 	mov    %rax,0x2108(%rsp)
  40104b:	00 
  40104c:	31 c0                	xor    %eax,%eax
  40104e:	89 3d c4 44 20 00    	mov    %edi,0x2044c4(%rip)        # 605518 <check_level>
  401054:	8b 3d 0e 41 20 00    	mov    0x20410e(%rip),%edi        # 605168 <target_id>
  40105a:	e8 9c 1e 00 00       	callq  402efb <gencookie>
  40105f:	89 05 bf 44 20 00    	mov    %eax,0x2044bf(%rip)        # 605524 <cookie>
  401065:	89 c7                	mov    %eax,%edi
  401067:	e8 8f 1e 00 00       	callq  402efb <gencookie>
  40106c:	89 05 ae 44 20 00    	mov    %eax,0x2044ae(%rip)        # 605520 <authkey>
  401072:	8b 05 f0 40 20 00    	mov    0x2040f0(%rip),%eax        # 605168 <target_id>
  401078:	8d 78 01             	lea    0x1(%rax),%edi
  40107b:	e8 20 fc ff ff       	callq  400ca0 <srandom@plt>
  401080:	e8 3b fd ff ff       	callq  400dc0 <random@plt>
  401085:	89 c7                	mov    %eax,%edi
  401087:	e8 03 03 00 00       	callq  40138f <scramble>
  40108c:	89 c3                	mov    %eax,%ebx
  40108e:	85 ed                	test   %ebp,%ebp
  401090:	74 18                	je     4010aa <initialize_target+0x7a>
  401092:	bf 00 00 00 00       	mov    $0x0,%edi
  401097:	e8 14 fd ff ff       	callq  400db0 <time@plt>
  40109c:	89 c7                	mov    %eax,%edi
  40109e:	e8 fd fb ff ff       	callq  400ca0 <srandom@plt>
  4010a3:	e8 18 fd ff ff       	callq  400dc0 <random@plt>
  4010a8:	eb 05                	jmp    4010af <initialize_target+0x7f>
  4010aa:	b8 00 00 00 00       	mov    $0x0,%eax
  4010af:	01 c3                	add    %eax,%ebx
  4010b1:	0f b7 db             	movzwl %bx,%ebx
  4010b4:	8d 04 dd 00 01 00 00 	lea    0x100(,%rbx,8),%eax
  4010bb:	89 c0                	mov    %eax,%eax
  4010bd:	48 89 05 dc 43 20 00 	mov    %rax,0x2043dc(%rip)        # 6054a0 <buf_offset>
  4010c4:	c6 05 7d 50 20 00 72 	movb   $0x72,0x20507d(%rip)        # 606148 <target_prefix>
  4010cb:	83 3d d6 43 20 00 00 	cmpl   $0x0,0x2043d6(%rip)        # 6054a8 <notify>
  4010d2:	0f 84 bb 00 00 00    	je     401193 <initialize_target+0x163>
  4010d8:	83 3d 49 44 20 00 00 	cmpl   $0x0,0x204449(%rip)        # 605528 <is_checker>
  4010df:	0f 85 ae 00 00 00    	jne    401193 <initialize_target+0x163>
  4010e5:	be 00 01 00 00       	mov    $0x100,%esi
  4010ea:	48 89 e7             	mov    %rsp,%rdi
  4010ed:	e8 4e fd ff ff       	callq  400e40 <gethostname@plt>
  4010f2:	85 c0                	test   %eax,%eax
  4010f4:	74 25                	je     40111b <initialize_target+0xeb>
  4010f6:	bf 88 30 40 00       	mov    $0x403088,%edi
  4010fb:	e8 d0 fb ff ff       	callq  400cd0 <puts@plt>
  401100:	bf 08 00 00 00       	mov    $0x8,%edi
  401105:	e8 46 fd ff ff       	callq  400e50 <exit@plt>
  40110a:	48 89 e6             	mov    %rsp,%rsi
  40110d:	e8 6e fb ff ff       	callq  400c80 <strcasecmp@plt>
  401112:	85 c0                	test   %eax,%eax
  401114:	74 21                	je     401137 <initialize_target+0x107>
  401116:	83 c3 01             	add    $0x1,%ebx
  401119:	eb 05                	jmp    401120 <initialize_target+0xf0>
  40111b:	bb 00 00 00 00       	mov    $0x0,%ebx
  401120:	48 63 c3             	movslq %ebx,%rax
  401123:	48 8b 3c c5 80 51 60 	mov    0x605180(,%rax,8),%rdi
  40112a:	00 
  40112b:	48 85 ff             	test   %rdi,%rdi
  40112e:	75 da                	jne    40110a <initialize_target+0xda>
  401130:	b8 00 00 00 00       	mov    $0x0,%eax
  401135:	eb 05                	jmp    40113c <initialize_target+0x10c>
  401137:	b8 01 00 00 00       	mov    $0x1,%eax
  40113c:	85 c0                	test   %eax,%eax
  40113e:	75 1c                	jne    40115c <initialize_target+0x12c>
  401140:	48 89 e2             	mov    %rsp,%rdx
  401143:	be c0 30 40 00       	mov    $0x4030c0,%esi
  401148:	bf 01 00 00 00       	mov    $0x1,%edi
  40114d:	e8 ae fc ff ff       	callq  400e00 <__printf_chk@plt>
  401152:	bf 08 00 00 00       	mov    $0x8,%edi
  401157:	e8 f4 fc ff ff       	callq  400e50 <exit@plt>
  40115c:	48 8d bc 24 00 01 00 	lea    0x100(%rsp),%rdi
  401163:	00 
  401164:	e8 fc 1a 00 00       	callq  402c65 <init_driver>
  401169:	85 c0                	test   %eax,%eax
  40116b:	79 26                	jns    401193 <initialize_target+0x163>
  40116d:	48 8d 94 24 00 01 00 	lea    0x100(%rsp),%rdx
  401174:	00 
  401175:	be 00 31 40 00       	mov    $0x403100,%esi
  40117a:	bf 01 00 00 00       	mov    $0x1,%edi
  40117f:	b8 00 00 00 00       	mov    $0x0,%eax
  401184:	e8 77 fc ff ff       	callq  400e00 <__printf_chk@plt>
  401189:	bf 08 00 00 00       	mov    $0x8,%edi
  40118e:	e8 bd fc ff ff       	callq  400e50 <exit@plt>
  401193:	48 8b 84 24 08 21 00 	mov    0x2108(%rsp),%rax
  40119a:	00 
  40119b:	64 48 33 04 25 28 00 	xor    %fs:0x28,%rax
  4011a2:	00 00 
  4011a4:	74 05                	je     4011ab <initialize_target+0x17b>
  4011a6:	e8 45 fb ff ff       	callq  400cf0 <__stack_chk_fail@plt>
  4011ab:	48 81 c4 18 21 00 00 	add    $0x2118,%rsp
  4011b2:	5b                   	pop    %rbx
  4011b3:	5d                   	pop    %rbp
  4011b4:	c3                   	retq   

00000000004011b5 <main>:
  4011b5:	41 56                	push   %r14
  4011b7:	41 55                	push   %r13
  4011b9:	41 54                	push   %r12
  4011bb:	55                   	push   %rbp
  4011bc:	53                   	push   %rbx
  4011bd:	41 89 fc             	mov    %edi,%r12d
  4011c0:	48 89 f3             	mov    %rsi,%rbx
  4011c3:	be a0 1f 40 00       	mov    $0x401fa0,%esi
  4011c8:	bf 0b 00 00 00       	mov    $0xb,%edi
  4011cd:	e8 8e fb ff ff       	callq  400d60 <signal@plt>
  4011d2:	be 52 1f 40 00       	mov    $0x401f52,%esi
  4011d7:	bf 07 00 00 00       	mov    $0x7,%edi
  4011dc:	e8 7f fb ff ff       	callq  400d60 <signal@plt>
  4011e1:	be ee 1f 40 00       	mov    $0x401fee,%esi
  4011e6:	bf 04 00 00 00       	mov    $0x4,%edi
  4011eb:	e8 70 fb ff ff       	callq  400d60 <signal@plt>
  4011f0:	83 3d 31 43 20 00 00 	cmpl   $0x0,0x204331(%rip)        # 605528 <is_checker>
  4011f7:	74 20                	je     401219 <main+0x64>
  4011f9:	be 3c 20 40 00       	mov    $0x40203c,%esi
  4011fe:	bf 0e 00 00 00       	mov    $0xe,%edi
  401203:	e8 58 fb ff ff       	callq  400d60 <signal@plt>
  401208:	bf 05 00 00 00       	mov    $0x5,%edi
  40120d:	e8 0e fb ff ff       	callq  400d20 <alarm@plt>
  401212:	bd ca 31 40 00       	mov    $0x4031ca,%ebp
  401217:	eb 05                	jmp    40121e <main+0x69>
  401219:	bd c5 31 40 00       	mov    $0x4031c5,%ebp
  40121e:	48 8b 05 9b 42 20 00 	mov    0x20429b(%rip),%rax        # 6054c0 <stdin@@GLIBC_2.2.5>
  401225:	48 89 05 e4 42 20 00 	mov    %rax,0x2042e4(%rip)        # 605510 <infile>
  40122c:	41 bd 00 00 00 00    	mov    $0x0,%r13d
  401232:	41 be 00 00 00 00    	mov    $0x0,%r14d
  401238:	e9 c6 00 00 00       	jmpq   401303 <main+0x14e>
  40123d:	83 e8 61             	sub    $0x61,%eax
  401240:	3c 10                	cmp    $0x10,%al
  401242:	0f 87 9c 00 00 00    	ja     4012e4 <main+0x12f>
  401248:	0f b6 c0             	movzbl %al,%eax
  40124b:	ff 24 c5 10 32 40 00 	jmpq   *0x403210(,%rax,8)
  401252:	48 8b 3b             	mov    (%rbx),%rdi
  401255:	e8 4c fd ff ff       	callq  400fa6 <usage>
  40125a:	be 7d 34 40 00       	mov    $0x40347d,%esi
  40125f:	48 8b 3d 62 42 20 00 	mov    0x204262(%rip),%rdi        # 6054c8 <optarg@@GLIBC_2.2.5>
  401266:	e8 a5 fb ff ff       	callq  400e10 <fopen@plt>
  40126b:	48 89 05 9e 42 20 00 	mov    %rax,0x20429e(%rip)        # 605510 <infile>
  401272:	48 85 c0             	test   %rax,%rax
  401275:	0f 85 88 00 00 00    	jne    401303 <main+0x14e>
  40127b:	48 8b 0d 46 42 20 00 	mov    0x204246(%rip),%rcx        # 6054c8 <optarg@@GLIBC_2.2.5>
  401282:	ba d2 31 40 00       	mov    $0x4031d2,%edx
  401287:	be 01 00 00 00       	mov    $0x1,%esi
  40128c:	48 8b 3d 4d 42 20 00 	mov    0x20424d(%rip),%rdi        # 6054e0 <stderr@@GLIBC_2.2.5>
  401293:	e8 d8 fb ff ff       	callq  400e70 <__fprintf_chk@plt>
  401298:	b8 01 00 00 00       	mov    $0x1,%eax
  40129d:	e9 e4 00 00 00       	jmpq   401386 <main+0x1d1>
  4012a2:	ba 10 00 00 00       	mov    $0x10,%edx
  4012a7:	be 00 00 00 00       	mov    $0x0,%esi
  4012ac:	48 8b 3d 15 42 20 00 	mov    0x204215(%rip),%rdi        # 6054c8 <optarg@@GLIBC_2.2.5>
  4012b3:	e8 78 fb ff ff       	callq  400e30 <strtoul@plt>
  4012b8:	41 89 c6             	mov    %eax,%r14d
  4012bb:	eb 46                	jmp    401303 <main+0x14e>
  4012bd:	ba 0a 00 00 00       	mov    $0xa,%edx
  4012c2:	be 00 00 00 00       	mov    $0x0,%esi
  4012c7:	48 8b 3d fa 41 20 00 	mov    0x2041fa(%rip),%rdi        # 6054c8 <optarg@@GLIBC_2.2.5>
  4012ce:	e8 bd fa ff ff       	callq  400d90 <strtol@plt>
  4012d3:	41 89 c5             	mov    %eax,%r13d
  4012d6:	eb 2b                	jmp    401303 <main+0x14e>
  4012d8:	c7 05 c6 41 20 00 00 	movl   $0x0,0x2041c6(%rip)        # 6054a8 <notify>
  4012df:	00 00 00 
  4012e2:	eb 1f                	jmp    401303 <main+0x14e>
  4012e4:	0f be d2             	movsbl %dl,%edx
  4012e7:	be ef 31 40 00       	mov    $0x4031ef,%esi
  4012ec:	bf 01 00 00 00       	mov    $0x1,%edi
  4012f1:	b8 00 00 00 00       	mov    $0x0,%eax
  4012f6:	e8 05 fb ff ff       	callq  400e00 <__printf_chk@plt>
  4012fb:	48 8b 3b             	mov    (%rbx),%rdi
  4012fe:	e8 a3 fc ff ff       	callq  400fa6 <usage>
  401303:	48 89 ea             	mov    %rbp,%rdx
  401306:	48 89 de             	mov    %rbx,%rsi
  401309:	44 89 e7             	mov    %r12d,%edi
  40130c:	e8 0f fb ff ff       	callq  400e20 <getopt@plt>
  401311:	89 c2                	mov    %eax,%edx
  401313:	3c ff                	cmp    $0xff,%al
  401315:	0f 85 22 ff ff ff    	jne    40123d <main+0x88>
  40131b:	be 01 00 00 00       	mov    $0x1,%esi
  401320:	44 89 ef             	mov    %r13d,%edi
  401323:	e8 08 fd ff ff       	callq  401030 <initialize_target>
  401328:	83 3d f9 41 20 00 00 	cmpl   $0x0,0x2041f9(%rip)        # 605528 <is_checker>
  40132f:	74 2a                	je     40135b <main+0x1a6>
  401331:	44 3b 35 e8 41 20 00 	cmp    0x2041e8(%rip),%r14d        # 605520 <authkey>
  401338:	74 21                	je     40135b <main+0x1a6>
  40133a:	44 89 f2             	mov    %r14d,%edx
  40133d:	be 28 31 40 00       	mov    $0x403128,%esi
  401342:	bf 01 00 00 00       	mov    $0x1,%edi
  401347:	b8 00 00 00 00       	mov    $0x0,%eax
  40134c:	e8 af fa ff ff       	callq  400e00 <__printf_chk@plt>
  401351:	b8 00 00 00 00       	mov    $0x0,%eax
  401356:	e8 93 08 00 00       	callq  401bee <check_fail>
  40135b:	8b 15 c3 41 20 00    	mov    0x2041c3(%rip),%edx        # 605524 <cookie>
  401361:	be 02 32 40 00       	mov    $0x403202,%esi
  401366:	bf 01 00 00 00       	mov    $0x1,%edi
  40136b:	b8 00 00 00 00       	mov    $0x0,%eax
  401370:	e8 8b fa ff ff       	callq  400e00 <__printf_chk@plt>
  401375:	48 8b 3d 24 41 20 00 	mov    0x204124(%rip),%rdi        # 6054a0 <buf_offset>
  40137c:	e8 0e 0d 00 00       	callq  40208f <launch>
  401381:	b8 00 00 00 00       	mov    $0x0,%eax
  401386:	5b                   	pop    %rbx
  401387:	5d                   	pop    %rbp
  401388:	41 5c                	pop    %r12
  40138a:	41 5d                	pop    %r13
  40138c:	41 5e                	pop    %r14
  40138e:	c3                   	retq   

000000000040138f <scramble>:
  40138f:	48 83 ec 38          	sub    $0x38,%rsp
  401393:	64 48 8b 04 25 28 00 	mov    %fs:0x28,%rax
  40139a:	00 00 
  40139c:	48 89 44 24 28       	mov    %rax,0x28(%rsp)
  4013a1:	31 c0                	xor    %eax,%eax
  4013a3:	eb 10                	jmp    4013b5 <scramble+0x26>
  4013a5:	69 d0 c8 2d 00 00    	imul   $0x2dc8,%eax,%edx
  4013ab:	01 fa                	add    %edi,%edx
  4013ad:	89 c1                	mov    %eax,%ecx
  4013af:	89 14 8c             	mov    %edx,(%rsp,%rcx,4)
  4013b2:	83 c0 01             	add    $0x1,%eax
  4013b5:	83 f8 09             	cmp    $0x9,%eax
  4013b8:	76 eb                	jbe    4013a5 <scramble+0x16>
  4013ba:	8b 44 24 20          	mov    0x20(%rsp),%eax
  4013be:	69 c0 37 4a 00 00    	imul   $0x4a37,%eax,%eax
  4013c4:	89 44 24 20          	mov    %eax,0x20(%rsp)
  4013c8:	8b 44 24 24          	mov    0x24(%rsp),%eax
  4013cc:	69 c0 b1 dd 00 00    	imul   $0xddb1,%eax,%eax
  4013d2:	89 44 24 24          	mov    %eax,0x24(%rsp)
  4013d6:	8b 44 24 10          	mov    0x10(%rsp),%eax
  4013da:	69 c0 f3 4c 00 00    	imul   $0x4cf3,%eax,%eax
  4013e0:	89 44 24 10          	mov    %eax,0x10(%rsp)
  4013e4:	8b 44 24 08          	mov    0x8(%rsp),%eax
  4013e8:	69 c0 0c a5 00 00    	imul   $0xa50c,%eax,%eax
  4013ee:	89 44 24 08          	mov    %eax,0x8(%rsp)
  4013f2:	8b 44 24 1c          	mov    0x1c(%rsp),%eax
  4013f6:	69 c0 39 66 00 00    	imul   $0x6639,%eax,%eax
  4013fc:	89 44 24 1c          	mov    %eax,0x1c(%rsp)
  401400:	8b 44 24 08          	mov    0x8(%rsp),%eax
  401404:	69 c0 5a 42 00 00    	imul   $0x425a,%eax,%eax
  40140a:	89 44 24 08          	mov    %eax,0x8(%rsp)
  40140e:	8b 44 24 1c          	mov    0x1c(%rsp),%eax
  401412:	69 c0 db cd 00 00    	imul   $0xcddb,%eax,%eax
  401418:	89 44 24 1c          	mov    %eax,0x1c(%rsp)
  40141c:	8b 44 24 24          	mov    0x24(%rsp),%eax
  401420:	69 c0 79 dc 00 00    	imul   $0xdc79,%eax,%eax
  401426:	89 44 24 24          	mov    %eax,0x24(%rsp)
  40142a:	8b 44 24 14          	mov    0x14(%rsp),%eax
  40142e:	69 c0 f0 10 00 00    	imul   $0x10f0,%eax,%eax
  401434:	89 44 24 14          	mov    %eax,0x14(%rsp)
  401438:	8b 44 24 08          	mov    0x8(%rsp),%eax
  40143c:	69 c0 ee 67 00 00    	imul   $0x67ee,%eax,%eax
  401442:	89 44 24 08          	mov    %eax,0x8(%rsp)
  401446:	8b 44 24 18          	mov    0x18(%rsp),%eax
  40144a:	69 c0 42 3e 00 00    	imul   $0x3e42,%eax,%eax
  401450:	89 44 24 18          	mov    %eax,0x18(%rsp)
  401454:	8b 44 24 0c          	mov    0xc(%rsp),%eax
  401458:	69 c0 f3 c6 00 00    	imul   $0xc6f3,%eax,%eax
  40145e:	89 44 24 0c          	mov    %eax,0xc(%rsp)
  401462:	8b 44 24 10          	mov    0x10(%rsp),%eax
  401466:	69 c0 60 2c 00 00    	imul   $0x2c60,%eax,%eax
  40146c:	89 44 24 10          	mov    %eax,0x10(%rsp)
  401470:	8b 44 24 18          	mov    0x18(%rsp),%eax
  401474:	69 c0 1a 45 00 00    	imul   $0x451a,%eax,%eax
  40147a:	89 44 24 18          	mov    %eax,0x18(%rsp)
  40147e:	8b 44 24 0c          	mov    0xc(%rsp),%eax
  401482:	69 c0 7d f8 00 00    	imul   $0xf87d,%eax,%eax
  401488:	89 44 24 0c          	mov    %eax,0xc(%rsp)
  40148c:	8b 04 24             	mov    (%rsp),%eax
  40148f:	69 c0 b0 52 00 00    	imul   $0x52b0,%eax,%eax
  401495:	89 04 24             	mov    %eax,(%rsp)
  401498:	8b 44 24 04          	mov    0x4(%rsp),%eax
  40149c:	69 c0 59 cf 00 00    	imul   $0xcf59,%eax,%eax
  4014a2:	89 44 24 04          	mov    %eax,0x4(%rsp)
  4014a6:	8b 04 24             	mov    (%rsp),%eax
  4014a9:	69 c0 29 99 00 00    	imul   $0x9929,%eax,%eax
  4014af:	89 04 24             	mov    %eax,(%rsp)
  4014b2:	8b 44 24 0c          	mov    0xc(%rsp),%eax
  4014b6:	69 c0 a3 19 00 00    	imul   $0x19a3,%eax,%eax
  4014bc:	89 44 24 0c          	mov    %eax,0xc(%rsp)
  4014c0:	8b 44 24 04          	mov    0x4(%rsp),%eax
  4014c4:	69 c0 69 90 00 00    	imul   $0x9069,%eax,%eax
  4014ca:	89 44 24 04          	mov    %eax,0x4(%rsp)
  4014ce:	8b 44 24 0c          	mov    0xc(%rsp),%eax
  4014d2:	69 c0 5c ca 00 00    	imul   $0xca5c,%eax,%eax
  4014d8:	89 44 24 0c          	mov    %eax,0xc(%rsp)
  4014dc:	8b 44 24 24          	mov    0x24(%rsp),%eax
  4014e0:	69 c0 29 b1 00 00    	imul   $0xb129,%eax,%eax
  4014e6:	89 44 24 24          	mov    %eax,0x24(%rsp)
  4014ea:	8b 44 24 10          	mov    0x10(%rsp),%eax
  4014ee:	69 c0 f2 db 00 00    	imul   $0xdbf2,%eax,%eax
  4014f4:	89 44 24 10          	mov    %eax,0x10(%rsp)
  4014f8:	8b 44 24 14          	mov    0x14(%rsp),%eax
  4014fc:	69 c0 a9 c1 00 00    	imul   $0xc1a9,%eax,%eax
  401502:	89 44 24 14          	mov    %eax,0x14(%rsp)
  401506:	8b 44 24 14          	mov    0x14(%rsp),%eax
  40150a:	69 c0 f5 b0 00 00    	imul   $0xb0f5,%eax,%eax
  401510:	89 44 24 14          	mov    %eax,0x14(%rsp)
  401514:	8b 44 24 1c          	mov    0x1c(%rsp),%eax
  401518:	69 c0 13 26 00 00    	imul   $0x2613,%eax,%eax
  40151e:	89 44 24 1c          	mov    %eax,0x1c(%rsp)
  401522:	8b 44 24 20          	mov    0x20(%rsp),%eax
  401526:	69 c0 1f c2 00 00    	imul   $0xc21f,%eax,%eax
  40152c:	89 44 24 20          	mov    %eax,0x20(%rsp)
  401530:	8b 44 24 04          	mov    0x4(%rsp),%eax
  401534:	69 c0 18 08 00 00    	imul   $0x818,%eax,%eax
  40153a:	89 44 24 04          	mov    %eax,0x4(%rsp)
  40153e:	8b 44 24 08          	mov    0x8(%rsp),%eax
  401542:	69 c0 e8 79 00 00    	imul   $0x79e8,%eax,%eax
  401548:	89 44 24 08          	mov    %eax,0x8(%rsp)
  40154c:	8b 44 24 0c          	mov    0xc(%rsp),%eax
  401550:	69 c0 67 13 00 00    	imul   $0x1367,%eax,%eax
  401556:	89 44 24 0c          	mov    %eax,0xc(%rsp)
  40155a:	8b 44 24 24          	mov    0x24(%rsp),%eax
  40155e:	69 c0 2d 29 00 00    	imul   $0x292d,%eax,%eax
  401564:	89 44 24 24          	mov    %eax,0x24(%rsp)
  401568:	8b 44 24 24          	mov    0x24(%rsp),%eax
  40156c:	69 c0 19 b5 00 00    	imul   $0xb519,%eax,%eax
  401572:	89 44 24 24          	mov    %eax,0x24(%rsp)
  401576:	8b 44 24 14          	mov    0x14(%rsp),%eax
  40157a:	69 c0 79 96 00 00    	imul   $0x9679,%eax,%eax
  401580:	89 44 24 14          	mov    %eax,0x14(%rsp)
  401584:	8b 44 24 20          	mov    0x20(%rsp),%eax
  401588:	69 c0 d3 14 00 00    	imul   $0x14d3,%eax,%eax
  40158e:	89 44 24 20          	mov    %eax,0x20(%rsp)
  401592:	8b 44 24 18          	mov    0x18(%rsp),%eax
  401596:	69 c0 78 8c 00 00    	imul   $0x8c78,%eax,%eax
  40159c:	89 44 24 18          	mov    %eax,0x18(%rsp)
  4015a0:	8b 44 24 24          	mov    0x24(%rsp),%eax
  4015a4:	69 c0 f9 2f 00 00    	imul   $0x2ff9,%eax,%eax
  4015aa:	89 44 24 24          	mov    %eax,0x24(%rsp)
  4015ae:	8b 44 24 10          	mov    0x10(%rsp),%eax
  4015b2:	69 c0 ff 77 00 00    	imul   $0x77ff,%eax,%eax
  4015b8:	89 44 24 10          	mov    %eax,0x10(%rsp)
  4015bc:	8b 44 24 08          	mov    0x8(%rsp),%eax
  4015c0:	69 c0 0c ef 00 00    	imul   $0xef0c,%eax,%eax
  4015c6:	89 44 24 08          	mov    %eax,0x8(%rsp)
  4015ca:	8b 44 24 04          	mov    0x4(%rsp),%eax
  4015ce:	69 c0 c4 6e 00 00    	imul   $0x6ec4,%eax,%eax
  4015d4:	89 44 24 04          	mov    %eax,0x4(%rsp)
  4015d8:	8b 44 24 04          	mov    0x4(%rsp),%eax
  4015dc:	69 c0 d5 40 00 00    	imul   $0x40d5,%eax,%eax
  4015e2:	89 44 24 04          	mov    %eax,0x4(%rsp)
  4015e6:	8b 44 24 18          	mov    0x18(%rsp),%eax
  4015ea:	69 c0 4c da 00 00    	imul   $0xda4c,%eax,%eax
  4015f0:	89 44 24 18          	mov    %eax,0x18(%rsp)
  4015f4:	8b 44 24 04          	mov    0x4(%rsp),%eax
  4015f8:	69 c0 f1 0e 00 00    	imul   $0xef1,%eax,%eax
  4015fe:	89 44 24 04          	mov    %eax,0x4(%rsp)
  401602:	8b 44 24 14          	mov    0x14(%rsp),%eax
  401606:	69 c0 ee 53 00 00    	imul   $0x53ee,%eax,%eax
  40160c:	89 44 24 14          	mov    %eax,0x14(%rsp)
  401610:	8b 04 24             	mov    (%rsp),%eax
  401613:	69 c0 eb 8a 00 00    	imul   $0x8aeb,%eax,%eax
  401619:	89 04 24             	mov    %eax,(%rsp)
  40161c:	8b 44 24 08          	mov    0x8(%rsp),%eax
  401620:	69 c0 3c 64 00 00    	imul   $0x643c,%eax,%eax
  401626:	89 44 24 08          	mov    %eax,0x8(%rsp)
  40162a:	8b 44 24 0c          	mov    0xc(%rsp),%eax
  40162e:	69 c0 3b 40 00 00    	imul   $0x403b,%eax,%eax
  401634:	89 44 24 0c          	mov    %eax,0xc(%rsp)
  401638:	8b 44 24 20          	mov    0x20(%rsp),%eax
  40163c:	69 c0 6a 04 00 00    	imul   $0x46a,%eax,%eax
  401642:	89 44 24 20          	mov    %eax,0x20(%rsp)
  401646:	8b 44 24 14          	mov    0x14(%rsp),%eax
  40164a:	69 c0 f0 85 00 00    	imul   $0x85f0,%eax,%eax
  401650:	89 44 24 14          	mov    %eax,0x14(%rsp)
  401654:	8b 44 24 10          	mov    0x10(%rsp),%eax
  401658:	69 c0 97 43 00 00    	imul   $0x4397,%eax,%eax
  40165e:	89 44 24 10          	mov    %eax,0x10(%rsp)
  401662:	8b 44 24 10          	mov    0x10(%rsp),%eax
  401666:	69 c0 ff 4a 00 00    	imul   $0x4aff,%eax,%eax
  40166c:	89 44 24 10          	mov    %eax,0x10(%rsp)
  401670:	8b 44 24 14          	mov    0x14(%rsp),%eax
  401674:	c1 e0 0e             	shl    $0xe,%eax
  401677:	89 44 24 14          	mov    %eax,0x14(%rsp)
  40167b:	8b 44 24 08          	mov    0x8(%rsp),%eax
  40167f:	69 c0 e5 26 00 00    	imul   $0x26e5,%eax,%eax
  401685:	89 44 24 08          	mov    %eax,0x8(%rsp)
  401689:	8b 44 24 14          	mov    0x14(%rsp),%eax
  40168d:	69 c0 1b 5c 00 00    	imul   $0x5c1b,%eax,%eax
  401693:	89 44 24 14          	mov    %eax,0x14(%rsp)
  401697:	8b 44 24 10          	mov    0x10(%rsp),%eax
  40169b:	69 c0 f2 0b 00 00    	imul   $0xbf2,%eax,%eax
  4016a1:	89 44 24 10          	mov    %eax,0x10(%rsp)
  4016a5:	8b 44 24 14          	mov    0x14(%rsp),%eax
  4016a9:	69 c0 a7 c6 00 00    	imul   $0xc6a7,%eax,%eax
  4016af:	89 44 24 14          	mov    %eax,0x14(%rsp)
  4016b3:	8b 44 24 24          	mov    0x24(%rsp),%eax
  4016b7:	69 c0 99 ea 00 00    	imul   $0xea99,%eax,%eax
  4016bd:	89 44 24 24          	mov    %eax,0x24(%rsp)
  4016c1:	8b 44 24 20          	mov    0x20(%rsp),%eax
  4016c5:	69 c0 af b3 00 00    	imul   $0xb3af,%eax,%eax
  4016cb:	89 44 24 20          	mov    %eax,0x20(%rsp)
  4016cf:	8b 44 24 24          	mov    0x24(%rsp),%eax
  4016d3:	69 c0 5f 3d 00 00    	imul   $0x3d5f,%eax,%eax
  4016d9:	89 44 24 24          	mov    %eax,0x24(%rsp)
  4016dd:	8b 44 24 18          	mov    0x18(%rsp),%eax
  4016e1:	69 c0 94 10 00 00    	imul   $0x1094,%eax,%eax
  4016e7:	89 44 24 18          	mov    %eax,0x18(%rsp)
  4016eb:	8b 44 24 10          	mov    0x10(%rsp),%eax
  4016ef:	69 c0 73 d5 00 00    	imul   $0xd573,%eax,%eax
  4016f5:	89 44 24 10          	mov    %eax,0x10(%rsp)
  4016f9:	8b 44 24 18          	mov    0x18(%rsp),%eax
  4016fd:	69 c0 9c 66 00 00    	imul   $0x669c,%eax,%eax
  401703:	89 44 24 18          	mov    %eax,0x18(%rsp)
  401707:	8b 44 24 10          	mov    0x10(%rsp),%eax
  40170b:	69 c0 39 02 00 00    	imul   $0x239,%eax,%eax
  401711:	89 44 24 10          	mov    %eax,0x10(%rsp)
  401715:	8b 44 24 08          	mov    0x8(%rsp),%eax
  401719:	69 c0 02 0b 00 00    	imul   $0xb02,%eax,%eax
  40171f:	89 44 24 08          	mov    %eax,0x8(%rsp)
  401723:	8b 04 24             	mov    (%rsp),%eax
  401726:	69 c0 e9 05 00 00    	imul   $0x5e9,%eax,%eax
  40172c:	89 04 24             	mov    %eax,(%rsp)
  40172f:	8b 44 24 14          	mov    0x14(%rsp),%eax
  401733:	69 c0 ee 22 00 00    	imul   $0x22ee,%eax,%eax
  401739:	89 44 24 14          	mov    %eax,0x14(%rsp)
  40173d:	8b 04 24             	mov    (%rsp),%eax
  401740:	69 c0 aa 1e 00 00    	imul   $0x1eaa,%eax,%eax
  401746:	89 04 24             	mov    %eax,(%rsp)
  401749:	8b 44 24 04          	mov    0x4(%rsp),%eax
  40174d:	69 c0 e2 cb 00 00    	imul   $0xcbe2,%eax,%eax
  401753:	89 44 24 04          	mov    %eax,0x4(%rsp)
  401757:	8b 44 24 14          	mov    0x14(%rsp),%eax
  40175b:	69 c0 ee 1a 00 00    	imul   $0x1aee,%eax,%eax
  401761:	89 44 24 14          	mov    %eax,0x14(%rsp)
  401765:	8b 04 24             	mov    (%rsp),%eax
  401768:	69 c0 80 5b 00 00    	imul   $0x5b80,%eax,%eax
  40176e:	89 04 24             	mov    %eax,(%rsp)
  401771:	8b 44 24 24          	mov    0x24(%rsp),%eax
  401775:	69 c0 dd f2 00 00    	imul   $0xf2dd,%eax,%eax
  40177b:	89 44 24 24          	mov    %eax,0x24(%rsp)
  40177f:	8b 44 24 1c          	mov    0x1c(%rsp),%eax
  401783:	69 c0 a7 73 00 00    	imul   $0x73a7,%eax,%eax
  401789:	89 44 24 1c          	mov    %eax,0x1c(%rsp)
  40178d:	8b 44 24 08          	mov    0x8(%rsp),%eax
  401791:	69 c0 1b c3 00 00    	imul   $0xc31b,%eax,%eax
  401797:	89 44 24 08          	mov    %eax,0x8(%rsp)
  40179b:	8b 44 24 08          	mov    0x8(%rsp),%eax
  40179f:	69 c0 01 d7 00 00    	imul   $0xd701,%eax,%eax
  4017a5:	89 44 24 08          	mov    %eax,0x8(%rsp)
  4017a9:	8b 44 24 0c          	mov    0xc(%rsp),%eax
  4017ad:	69 c0 f3 2e 00 00    	imul   $0x2ef3,%eax,%eax
  4017b3:	89 44 24 0c          	mov    %eax,0xc(%rsp)
  4017b7:	8b 44 24 10          	mov    0x10(%rsp),%eax
  4017bb:	69 c0 c4 c8 00 00    	imul   $0xc8c4,%eax,%eax
  4017c1:	89 44 24 10          	mov    %eax,0x10(%rsp)
  4017c5:	8b 04 24             	mov    (%rsp),%eax
  4017c8:	69 c0 65 5c 00 00    	imul   $0x5c65,%eax,%eax
  4017ce:	89 04 24             	mov    %eax,(%rsp)
  4017d1:	8b 44 24 1c          	mov    0x1c(%rsp),%eax
  4017d5:	69 c0 14 1a 00 00    	imul   $0x1a14,%eax,%eax
  4017db:	89 44 24 1c          	mov    %eax,0x1c(%rsp)
  4017df:	8b 44 24 1c          	mov    0x1c(%rsp),%eax
  4017e3:	69 c0 67 9a 00 00    	imul   $0x9a67,%eax,%eax
  4017e9:	89 44 24 1c          	mov    %eax,0x1c(%rsp)
  4017ed:	8b 44 24 18          	mov    0x18(%rsp),%eax
  4017f1:	69 c0 c9 e6 00 00    	imul   $0xe6c9,%eax,%eax
  4017f7:	89 44 24 18          	mov    %eax,0x18(%rsp)
  4017fb:	8b 44 24 04          	mov    0x4(%rsp),%eax
  4017ff:	69 c0 b1 73 00 00    	imul   $0x73b1,%eax,%eax
  401805:	89 44 24 04          	mov    %eax,0x4(%rsp)
  401809:	8b 44 24 14          	mov    0x14(%rsp),%eax
  40180d:	69 c0 39 f1 00 00    	imul   $0xf139,%eax,%eax
  401813:	89 44 24 14          	mov    %eax,0x14(%rsp)
  401817:	8b 44 24 14          	mov    0x14(%rsp),%eax
  40181b:	69 c0 a5 6c 00 00    	imul   $0x6ca5,%eax,%eax
  401821:	89 44 24 14          	mov    %eax,0x14(%rsp)
  401825:	8b 44 24 20          	mov    0x20(%rsp),%eax
  401829:	69 c0 ea d7 00 00    	imul   $0xd7ea,%eax,%eax
  40182f:	89 44 24 20          	mov    %eax,0x20(%rsp)
  401833:	8b 44 24 18          	mov    0x18(%rsp),%eax
  401837:	69 c0 19 e5 00 00    	imul   $0xe519,%eax,%eax
  40183d:	89 44 24 18          	mov    %eax,0x18(%rsp)
  401841:	ba 00 00 00 00       	mov    $0x0,%edx
  401846:	b8 00 00 00 00       	mov    $0x0,%eax
  40184b:	eb 0a                	jmp    401857 <scramble+0x4c8>
  40184d:	89 d1                	mov    %edx,%ecx
  40184f:	8b 0c 8c             	mov    (%rsp,%rcx,4),%ecx
  401852:	01 c8                	add    %ecx,%eax
  401854:	83 c2 01             	add    $0x1,%edx
  401857:	83 fa 09             	cmp    $0x9,%edx
  40185a:	76 f1                	jbe    40184d <scramble+0x4be>
  40185c:	48 8b 74 24 28       	mov    0x28(%rsp),%rsi
  401861:	64 48 33 34 25 28 00 	xor    %fs:0x28,%rsi
  401868:	00 00 
  40186a:	74 05                	je     401871 <scramble+0x4e2>
  40186c:	e8 7f f4 ff ff       	callq  400cf0 <__stack_chk_fail@plt>
  401871:	48 83 c4 38          	add    $0x38,%rsp
  401875:	c3                   	retq   

0000000000401876 <getbuf>:
  401876:	48 83 ec 18          	sub    $0x18,%rsp
  40187a:	48 89 e7             	mov    %rsp,%rdi
  40187d:	e8 a1 03 00 00       	callq  401c23 <Gets>
  401882:	b8 01 00 00 00       	mov    $0x1,%eax
  401887:	48 83 c4 18          	add    $0x18,%rsp
  40188b:	c3                   	retq   

000000000040188c <touch1>:
  40188c:	48 83 ec 08          	sub    $0x8,%rsp
  401890:	c7 05 82 3c 20 00 01 	movl   $0x1,0x203c82(%rip)        # 60551c <vlevel>
  401897:	00 00 00 
  40189a:	bf d1 32 40 00       	mov    $0x4032d1,%edi
  40189f:	e8 2c f4 ff ff       	callq  400cd0 <puts@plt>
  4018a4:	bf 01 00 00 00       	mov    $0x1,%edi
  4018a9:	e8 ba 05 00 00       	callq  401e68 <validate>
  4018ae:	bf 00 00 00 00       	mov    $0x0,%edi
  4018b3:	e8 98 f5 ff ff       	callq  400e50 <exit@plt>

00000000004018b8 <touch2>:
  4018b8:	48 83 ec 08          	sub    $0x8,%rsp
  4018bc:	89 fa                	mov    %edi,%edx
  4018be:	c7 05 54 3c 20 00 02 	movl   $0x2,0x203c54(%rip)        # 60551c <vlevel>
  4018c5:	00 00 00 
  4018c8:	39 3d 56 3c 20 00    	cmp    %edi,0x203c56(%rip)        # 605524 <cookie>
  4018ce:	75 20                	jne    4018f0 <touch2+0x38>
  4018d0:	be f8 32 40 00       	mov    $0x4032f8,%esi
  4018d5:	bf 01 00 00 00       	mov    $0x1,%edi
  4018da:	b8 00 00 00 00       	mov    $0x0,%eax
  4018df:	e8 1c f5 ff ff       	callq  400e00 <__printf_chk@plt>
  4018e4:	bf 02 00 00 00       	mov    $0x2,%edi
  4018e9:	e8 7a 05 00 00       	callq  401e68 <validate>
  4018ee:	eb 1e                	jmp    40190e <touch2+0x56>
  4018f0:	be 20 33 40 00       	mov    $0x403320,%esi
  4018f5:	bf 01 00 00 00       	mov    $0x1,%edi
  4018fa:	b8 00 00 00 00       	mov    $0x0,%eax
  4018ff:	e8 fc f4 ff ff       	callq  400e00 <__printf_chk@plt>
  401904:	bf 02 00 00 00       	mov    $0x2,%edi
  401909:	e8 1c 06 00 00       	callq  401f2a <fail>
  40190e:	bf 00 00 00 00       	mov    $0x0,%edi
  401913:	e8 38 f5 ff ff       	callq  400e50 <exit@plt>

0000000000401918 <hexmatch>:
  401918:	41 54                	push   %r12
  40191a:	55                   	push   %rbp
  40191b:	53                   	push   %rbx
  40191c:	48 83 c4 80          	add    $0xffffffffffffff80,%rsp
  401920:	89 fd                	mov    %edi,%ebp
  401922:	48 89 f3             	mov    %rsi,%rbx
  401925:	64 48 8b 04 25 28 00 	mov    %fs:0x28,%rax
  40192c:	00 00 
  40192e:	48 89 44 24 78       	mov    %rax,0x78(%rsp)
  401933:	31 c0                	xor    %eax,%eax
  401935:	e8 86 f4 ff ff       	callq  400dc0 <random@plt>
  40193a:	48 89 c1             	mov    %rax,%rcx
  40193d:	48 ba 0b d7 a3 70 3d 	movabs $0xa3d70a3d70a3d70b,%rdx
  401944:	0a d7 a3 
  401947:	48 f7 ea             	imul   %rdx
  40194a:	48 01 ca             	add    %rcx,%rdx
  40194d:	48 c1 fa 06          	sar    $0x6,%rdx
  401951:	48 89 c8             	mov    %rcx,%rax
  401954:	48 c1 f8 3f          	sar    $0x3f,%rax
  401958:	48 29 c2             	sub    %rax,%rdx
  40195b:	48 8d 04 92          	lea    (%rdx,%rdx,4),%rax
  40195f:	48 8d 14 80          	lea    (%rax,%rax,4),%rdx
  401963:	48 8d 04 95 00 00 00 	lea    0x0(,%rdx,4),%rax
  40196a:	00 
  40196b:	48 29 c1             	sub    %rax,%rcx
  40196e:	4c 8d 24 0c          	lea    (%rsp,%rcx,1),%r12
  401972:	41 89 e8             	mov    %ebp,%r8d
  401975:	b9 ee 32 40 00       	mov    $0x4032ee,%ecx
  40197a:	48 c7 c2 ff ff ff ff 	mov    $0xffffffffffffffff,%rdx
  401981:	be 01 00 00 00       	mov    $0x1,%esi
  401986:	4c 89 e7             	mov    %r12,%rdi
  401989:	b8 00 00 00 00       	mov    $0x0,%eax
  40198e:	e8 ed f4 ff ff       	callq  400e80 <__sprintf_chk@plt>
  401993:	ba 09 00 00 00       	mov    $0x9,%edx
  401998:	4c 89 e6             	mov    %r12,%rsi
  40199b:	48 89 df             	mov    %rbx,%rdi
  40199e:	e8 0d f3 ff ff       	callq  400cb0 <strncmp@plt>
  4019a3:	85 c0                	test   %eax,%eax
  4019a5:	0f 94 c0             	sete   %al
  4019a8:	48 8b 5c 24 78       	mov    0x78(%rsp),%rbx
  4019ad:	64 48 33 1c 25 28 00 	xor    %fs:0x28,%rbx
  4019b4:	00 00 
  4019b6:	74 05                	je     4019bd <hexmatch+0xa5>
  4019b8:	e8 33 f3 ff ff       	callq  400cf0 <__stack_chk_fail@plt>
  4019bd:	0f b6 c0             	movzbl %al,%eax
  4019c0:	48 83 ec 80          	sub    $0xffffffffffffff80,%rsp
  4019c4:	5b                   	pop    %rbx
  4019c5:	5d                   	pop    %rbp
  4019c6:	41 5c                	pop    %r12
  4019c8:	c3                   	retq   

00000000004019c9 <touch3>:
  4019c9:	53                   	push   %rbx
  4019ca:	48 89 fb             	mov    %rdi,%rbx
  4019cd:	c7 05 45 3b 20 00 03 	movl   $0x3,0x203b45(%rip)        # 60551c <vlevel>
  4019d4:	00 00 00 
  4019d7:	48 89 fe             	mov    %rdi,%rsi
  4019da:	8b 3d 44 3b 20 00    	mov    0x203b44(%rip),%edi        # 605524 <cookie>
  4019e0:	e8 33 ff ff ff       	callq  401918 <hexmatch>
  4019e5:	85 c0                	test   %eax,%eax
  4019e7:	74 23                	je     401a0c <touch3+0x43>
  4019e9:	48 89 da             	mov    %rbx,%rdx
  4019ec:	be 48 33 40 00       	mov    $0x403348,%esi
  4019f1:	bf 01 00 00 00       	mov    $0x1,%edi
  4019f6:	b8 00 00 00 00       	mov    $0x0,%eax
  4019fb:	e8 00 f4 ff ff       	callq  400e00 <__printf_chk@plt>
  401a00:	bf 03 00 00 00       	mov    $0x3,%edi
  401a05:	e8 5e 04 00 00       	callq  401e68 <validate>
  401a0a:	eb 21                	jmp    401a2d <touch3+0x64>
  401a0c:	48 89 da             	mov    %rbx,%rdx
  401a0f:	be 70 33 40 00       	mov    $0x403370,%esi
  401a14:	bf 01 00 00 00       	mov    $0x1,%edi
  401a19:	b8 00 00 00 00       	mov    $0x0,%eax
  401a1e:	e8 dd f3 ff ff       	callq  400e00 <__printf_chk@plt>
  401a23:	bf 03 00 00 00       	mov    $0x3,%edi
  401a28:	e8 fd 04 00 00       	callq  401f2a <fail>
  401a2d:	bf 00 00 00 00       	mov    $0x0,%edi
  401a32:	e8 19 f4 ff ff       	callq  400e50 <exit@plt>

0000000000401a37 <test>:
  401a37:	48 83 ec 08          	sub    $0x8,%rsp
  401a3b:	b8 00 00 00 00       	mov    $0x0,%eax
  401a40:	e8 31 fe ff ff       	callq  401876 <getbuf>
  401a45:	89 c2                	mov    %eax,%edx
  401a47:	be 98 33 40 00       	mov    $0x403398,%esi
  401a4c:	bf 01 00 00 00       	mov    $0x1,%edi
  401a51:	b8 00 00 00 00       	mov    $0x0,%eax
  401a56:	e8 a5 f3 ff ff       	callq  400e00 <__printf_chk@plt>
  401a5b:	48 83 c4 08          	add    $0x8,%rsp
  401a5f:	c3                   	retq   

0000000000401a60 <start_farm>:
  401a60:	b8 01 00 00 00       	mov    $0x1,%eax
  401a65:	c3                   	retq   

0000000000401a66 <setval_334>:
  401a66:	c7 07 58 90 90 c3    	movl   $0xc3909058,(%rdi)
  401a6c:	c3                   	retq   

0000000000401a6d <getval_258>:
  401a6d:	b8 81 48 89 c7       	mov    $0xc7894881,%eax
  401a72:	c3                   	retq   

0000000000401a73 <getval_448>:
  401a73:	b8 04 bc 58 c3       	mov    $0xc358bc04,%eax
  401a78:	c3                   	retq   

0000000000401a79 <addval_102>:
  401a79:	8d 87 78 c3 e2 8b    	lea    -0x741d3c88(%rdi),%eax
  401a7f:	c3                   	retq   

0000000000401a80 <getval_312>:
  401a80:	b8 48 81 c7 90       	mov    $0x90c78148,%eax
  401a85:	c3                   	retq   

0000000000401a86 <setval_292>:
  401a86:	c7 07 48 89 c7 90    	movl   $0x90c78948,(%rdi)
  401a8c:	c3                   	retq   

0000000000401a8d <setval_346>:
  401a8d:	c7 07 18 90 90 c3    	movl   $0xc3909018,(%rdi)
  401a93:	c3                   	retq   

0000000000401a94 <setval_186>:
  401a94:	c7 07 48 8d c7 c3    	movl   $0xc3c78d48,(%rdi)
  401a9a:	c3                   	retq   

0000000000401a9b <mid_farm>:
  401a9b:	b8 01 00 00 00       	mov    $0x1,%eax
  401aa0:	c3                   	retq   

0000000000401aa1 <add_xy>:
  401aa1:	48 8d 04 37          	lea    (%rdi,%rsi,1),%rax
  401aa5:	c3                   	retq   

0000000000401aa6 <addval_338>:
  401aa6:	8d 87 8d c2 c3 7d    	lea    0x7dc3c28d(%rdi),%eax
  401aac:	c3                   	retq   

0000000000401aad <addval_179>:
  401aad:	8d 87 89 ce c3 62    	lea    0x62c3ce89(%rdi),%eax
  401ab3:	c3                   	retq   

0000000000401ab4 <setval_427>:
  401ab4:	c7 07 48 89 e0 90    	movl   $0x90e08948,(%rdi)
  401aba:	c3                   	retq   

0000000000401abb <getval_193>:
  401abb:	b8 89 ce 38 d2       	mov    $0xd238ce89,%eax
  401ac0:	c3                   	retq   

0000000000401ac1 <addval_158>:
  401ac1:	8d 87 89 ce 18 d2    	lea    -0x2de73177(%rdi),%eax
  401ac7:	c3                   	retq   

0000000000401ac8 <getval_148>:
  401ac8:	b8 48 89 e0 c3       	mov    $0xc3e08948,%eax
  401acd:	c3                   	retq   

0000000000401ace <getval_295>:
  401ace:	b8 89 ce 92 90       	mov    $0x9092ce89,%eax
  401ad3:	c3                   	retq   

0000000000401ad4 <addval_270>:
  401ad4:	8d 87 48 89 e0 94    	lea    -0x6b1f76b8(%rdi),%eax
  401ada:	c3                   	retq   

0000000000401adb <addval_301>:
  401adb:	8d 87 89 c2 30 c0    	lea    -0x3fcf3d77(%rdi),%eax
  401ae1:	c3                   	retq   

0000000000401ae2 <setval_160>:
  401ae2:	c7 07 4c 89 e0 c3    	movl   $0xc3e0894c,(%rdi)
  401ae8:	c3                   	retq   

0000000000401ae9 <setval_155>:
  401ae9:	c7 07 88 c2 90 90    	movl   $0x9090c288,(%rdi)
  401aef:	c3                   	retq   

0000000000401af0 <addval_131>:
  401af0:	8d 87 48 89 e0 c2    	lea    -0x3d1f76b8(%rdi),%eax
  401af6:	c3                   	retq   

0000000000401af7 <addval_105>:
  401af7:	8d 87 8d d1 90 c3    	lea    -0x3c6f2e73(%rdi),%eax
  401afd:	c3                   	retq   

0000000000401afe <setval_320>:
  401afe:	c7 07 89 d1 00 db    	movl   $0xdb00d189,(%rdi)
  401b04:	c3                   	retq   

0000000000401b05 <setval_473>:
  401b05:	c7 07 89 ce 94 db    	movl   $0xdb94ce89,(%rdi)
  401b0b:	c3                   	retq   

0000000000401b0c <setval_200>:
  401b0c:	c7 07 48 89 e0 94    	movl   $0x94e08948,(%rdi)
  401b12:	c3                   	retq   

0000000000401b13 <addval_231>:
  401b13:	8d 87 4c 89 e0 c3    	lea    -0x3c1f76b4(%rdi),%eax
  401b19:	c3                   	retq   

0000000000401b1a <addval_107>:
  401b1a:	8d 87 7c 8b ce c3    	lea    -0x3c317484(%rdi),%eax
  401b20:	c3                   	retq   

0000000000401b21 <setval_233>:
  401b21:	c7 07 89 d1 20 c0    	movl   $0xc020d189,(%rdi)
  401b27:	c3                   	retq   

0000000000401b28 <setval_313>:
  401b28:	c7 07 48 88 e0 90    	movl   $0x90e08848,(%rdi)
  401b2e:	c3                   	retq   

0000000000401b2f <setval_170>:
  401b2f:	c7 07 89 c2 38 d2    	movl   $0xd238c289,(%rdi)
  401b35:	c3                   	retq   

0000000000401b36 <setval_108>:
  401b36:	c7 07 89 d1 84 c0    	movl   $0xc084d189,(%rdi)
  401b3c:	c3                   	retq   

0000000000401b3d <getval_154>:
  401b3d:	b8 88 d1 08 db       	mov    $0xdb08d188,%eax
  401b42:	c3                   	retq   

0000000000401b43 <setval_388>:
  401b43:	c7 07 67 93 a9 c2    	movl   $0xc2a99367,(%rdi)
  401b49:	c3                   	retq   

0000000000401b4a <setval_378>:
  401b4a:	c7 07 89 d1 48 c0    	movl   $0xc048d189,(%rdi)
  401b50:	c3                   	retq   

0000000000401b51 <getval_153>:
  401b51:	b8 81 d1 84 db       	mov    $0xdb84d181,%eax
  401b56:	c3                   	retq   

0000000000401b57 <getval_318>:
  401b57:	b8 89 ce 00 db       	mov    $0xdb00ce89,%eax
  401b5c:	c3                   	retq   

0000000000401b5d <getval_398>:
  401b5d:	b8 8b d1 90 90       	mov    $0x9090d18b,%eax
  401b62:	c3                   	retq   

0000000000401b63 <addval_245>:
  401b63:	8d 87 81 ce 20 c9    	lea    -0x36df317f(%rdi),%eax
  401b69:	c3                   	retq   

0000000000401b6a <getval_169>:
  401b6a:	b8 09 c2 08 d2       	mov    $0xd208c209,%eax
  401b6f:	c3                   	retq   

0000000000401b70 <getval_410>:
  401b70:	b8 89 c2 60 c0       	mov    $0xc060c289,%eax
  401b75:	c3                   	retq   

0000000000401b76 <addval_414>:
  401b76:	8d 87 89 c2 08 db    	lea    -0x24f73d77(%rdi),%eax
  401b7c:	c3                   	retq   

0000000000401b7d <end_farm>:
  401b7d:	b8 01 00 00 00       	mov    $0x1,%eax
  401b82:	c3                   	retq   

0000000000401b83 <save_char>:
  401b83:	8b 05 bb 45 20 00    	mov    0x2045bb(%rip),%eax        # 606144 <gets_cnt>
  401b89:	3d ff 03 00 00       	cmp    $0x3ff,%eax
  401b8e:	7f 49                	jg     401bd9 <save_char+0x56>
  401b90:	8d 14 40             	lea    (%rax,%rax,2),%edx
  401b93:	89 f9                	mov    %edi,%ecx
  401b95:	c0 e9 04             	shr    $0x4,%cl
  401b98:	83 e1 0f             	and    $0xf,%ecx
  401b9b:	0f b6 b1 c0 36 40 00 	movzbl 0x4036c0(%rcx),%esi
  401ba2:	48 63 ca             	movslq %edx,%rcx
  401ba5:	40 88 b1 40 55 60 00 	mov    %sil,0x605540(%rcx)
  401bac:	8d 4a 01             	lea    0x1(%rdx),%ecx
  401baf:	83 e7 0f             	and    $0xf,%edi
  401bb2:	0f b6 b7 c0 36 40 00 	movzbl 0x4036c0(%rdi),%esi
  401bb9:	48 63 c9             	movslq %ecx,%rcx
  401bbc:	40 88 b1 40 55 60 00 	mov    %sil,0x605540(%rcx)
  401bc3:	83 c2 02             	add    $0x2,%edx
  401bc6:	48 63 d2             	movslq %edx,%rdx
  401bc9:	c6 82 40 55 60 00 20 	movb   $0x20,0x605540(%rdx)
  401bd0:	83 c0 01             	add    $0x1,%eax
  401bd3:	89 05 6b 45 20 00    	mov    %eax,0x20456b(%rip)        # 606144 <gets_cnt>
  401bd9:	f3 c3                	repz retq 

0000000000401bdb <save_term>:
  401bdb:	8b 05 63 45 20 00    	mov    0x204563(%rip),%eax        # 606144 <gets_cnt>
  401be1:	8d 04 40             	lea    (%rax,%rax,2),%eax
  401be4:	48 98                	cltq   
  401be6:	c6 80 40 55 60 00 00 	movb   $0x0,0x605540(%rax)
  401bed:	c3                   	retq   

0000000000401bee <check_fail>:
  401bee:	48 83 ec 08          	sub    $0x8,%rsp
  401bf2:	0f be 15 4f 45 20 00 	movsbl 0x20454f(%rip),%edx        # 606148 <target_prefix>
  401bf9:	41 b8 40 55 60 00    	mov    $0x605540,%r8d
  401bff:	8b 0d 13 39 20 00    	mov    0x203913(%rip),%ecx        # 605518 <check_level>
  401c05:	be bb 33 40 00       	mov    $0x4033bb,%esi
  401c0a:	bf 01 00 00 00       	mov    $0x1,%edi
  401c0f:	b8 00 00 00 00       	mov    $0x0,%eax
  401c14:	e8 e7 f1 ff ff       	callq  400e00 <__printf_chk@plt>
  401c19:	bf 01 00 00 00       	mov    $0x1,%edi
  401c1e:	e8 2d f2 ff ff       	callq  400e50 <exit@plt>

0000000000401c23 <Gets>:
  401c23:	41 54                	push   %r12
  401c25:	55                   	push   %rbp
  401c26:	53                   	push   %rbx
  401c27:	49 89 fc             	mov    %rdi,%r12
  401c2a:	c7 05 10 45 20 00 00 	movl   $0x0,0x204510(%rip)        # 606144 <gets_cnt>
  401c31:	00 00 00 
  401c34:	48 89 fb             	mov    %rdi,%rbx
  401c37:	eb 11                	jmp    401c4a <Gets+0x27>
  401c39:	48 8d 6b 01          	lea    0x1(%rbx),%rbp
  401c3d:	88 03                	mov    %al,(%rbx)
  401c3f:	0f b6 f8             	movzbl %al,%edi
  401c42:	e8 3c ff ff ff       	callq  401b83 <save_char>
  401c47:	48 89 eb             	mov    %rbp,%rbx
  401c4a:	48 8b 3d bf 38 20 00 	mov    0x2038bf(%rip),%rdi        # 605510 <infile>
  401c51:	e8 7a f1 ff ff       	callq  400dd0 <_IO_getc@plt>
  401c56:	83 f8 ff             	cmp    $0xffffffff,%eax
  401c59:	74 05                	je     401c60 <Gets+0x3d>
  401c5b:	83 f8 0a             	cmp    $0xa,%eax
  401c5e:	75 d9                	jne    401c39 <Gets+0x16>
  401c60:	c6 03 00             	movb   $0x0,(%rbx)
  401c63:	b8 00 00 00 00       	mov    $0x0,%eax
  401c68:	e8 6e ff ff ff       	callq  401bdb <save_term>
  401c6d:	4c 89 e0             	mov    %r12,%rax
  401c70:	5b                   	pop    %rbx
  401c71:	5d                   	pop    %rbp
  401c72:	41 5c                	pop    %r12
  401c74:	c3                   	retq   

0000000000401c75 <notify_server>:
  401c75:	53                   	push   %rbx
  401c76:	48 81 ec 10 40 00 00 	sub    $0x4010,%rsp
  401c7d:	64 48 8b 04 25 28 00 	mov    %fs:0x28,%rax
  401c84:	00 00 
  401c86:	48 89 84 24 08 40 00 	mov    %rax,0x4008(%rsp)
  401c8d:	00 
  401c8e:	31 c0                	xor    %eax,%eax
  401c90:	83 3d 91 38 20 00 00 	cmpl   $0x0,0x203891(%rip)        # 605528 <is_checker>
  401c97:	0f 85 aa 01 00 00    	jne    401e47 <notify_server+0x1d2>
  401c9d:	89 fb                	mov    %edi,%ebx
  401c9f:	8b 05 9f 44 20 00    	mov    0x20449f(%rip),%eax        # 606144 <gets_cnt>
  401ca5:	83 c0 64             	add    $0x64,%eax
  401ca8:	3d 00 20 00 00       	cmp    $0x2000,%eax
  401cad:	7e 1e                	jle    401ccd <notify_server+0x58>
  401caf:	be f0 34 40 00       	mov    $0x4034f0,%esi
  401cb4:	bf 01 00 00 00       	mov    $0x1,%edi
  401cb9:	b8 00 00 00 00       	mov    $0x0,%eax
  401cbe:	e8 3d f1 ff ff       	callq  400e00 <__printf_chk@plt>
  401cc3:	bf 01 00 00 00       	mov    $0x1,%edi
  401cc8:	e8 83 f1 ff ff       	callq  400e50 <exit@plt>
  401ccd:	0f be 05 74 44 20 00 	movsbl 0x204474(%rip),%eax        # 606148 <target_prefix>
  401cd4:	83 3d cd 37 20 00 00 	cmpl   $0x0,0x2037cd(%rip)        # 6054a8 <notify>
  401cdb:	74 08                	je     401ce5 <notify_server+0x70>
  401cdd:	8b 15 3d 38 20 00    	mov    0x20383d(%rip),%edx        # 605520 <authkey>
  401ce3:	eb 05                	jmp    401cea <notify_server+0x75>
  401ce5:	ba ff ff ff ff       	mov    $0xffffffff,%edx
  401cea:	85 db                	test   %ebx,%ebx
  401cec:	74 08                	je     401cf6 <notify_server+0x81>
  401cee:	41 b9 d1 33 40 00    	mov    $0x4033d1,%r9d
  401cf4:	eb 06                	jmp    401cfc <notify_server+0x87>
  401cf6:	41 b9 d6 33 40 00    	mov    $0x4033d6,%r9d
  401cfc:	68 40 55 60 00       	pushq  $0x605540
  401d01:	56                   	push   %rsi
  401d02:	50                   	push   %rax
  401d03:	52                   	push   %rdx
  401d04:	44 8b 05 5d 34 20 00 	mov    0x20345d(%rip),%r8d        # 605168 <target_id>
  401d0b:	b9 db 33 40 00       	mov    $0x4033db,%ecx
  401d10:	ba 00 20 00 00       	mov    $0x2000,%edx
  401d15:	be 01 00 00 00       	mov    $0x1,%esi
  401d1a:	48 8d 7c 24 20       	lea    0x20(%rsp),%rdi
  401d1f:	b8 00 00 00 00       	mov    $0x0,%eax
  401d24:	e8 57 f1 ff ff       	callq  400e80 <__sprintf_chk@plt>
  401d29:	48 83 c4 20          	add    $0x20,%rsp
  401d2d:	83 3d 74 37 20 00 00 	cmpl   $0x0,0x203774(%rip)        # 6054a8 <notify>
  401d34:	0f 84 81 00 00 00    	je     401dbb <notify_server+0x146>
  401d3a:	85 db                	test   %ebx,%ebx
  401d3c:	74 6e                	je     401dac <notify_server+0x137>
  401d3e:	4c 8d 8c 24 00 20 00 	lea    0x2000(%rsp),%r9
  401d45:	00 
  401d46:	41 b8 00 00 00 00    	mov    $0x0,%r8d
  401d4c:	48 89 e1             	mov    %rsp,%rcx
  401d4f:	48 8b 15 1a 34 20 00 	mov    0x20341a(%rip),%rdx        # 605170 <lab>
  401d56:	48 8b 35 1b 34 20 00 	mov    0x20341b(%rip),%rsi        # 605178 <course>
  401d5d:	48 8b 3d fc 33 20 00 	mov    0x2033fc(%rip),%rdi        # 605160 <user_id>
  401d64:	e8 ef 10 00 00       	callq  402e58 <driver_post>
  401d69:	85 c0                	test   %eax,%eax
  401d6b:	79 26                	jns    401d93 <notify_server+0x11e>
  401d6d:	48 8d 94 24 00 20 00 	lea    0x2000(%rsp),%rdx
  401d74:	00 
  401d75:	be f7 33 40 00       	mov    $0x4033f7,%esi
  401d7a:	bf 01 00 00 00       	mov    $0x1,%edi
  401d7f:	b8 00 00 00 00       	mov    $0x0,%eax
  401d84:	e8 77 f0 ff ff       	callq  400e00 <__printf_chk@plt>
  401d89:	bf 01 00 00 00       	mov    $0x1,%edi
  401d8e:	e8 bd f0 ff ff       	callq  400e50 <exit@plt>
  401d93:	bf 20 35 40 00       	mov    $0x403520,%edi
  401d98:	e8 33 ef ff ff       	callq  400cd0 <puts@plt>
  401d9d:	bf 03 34 40 00       	mov    $0x403403,%edi
  401da2:	e8 29 ef ff ff       	callq  400cd0 <puts@plt>
  401da7:	e9 9b 00 00 00       	jmpq   401e47 <notify_server+0x1d2>
  401dac:	bf 0d 34 40 00       	mov    $0x40340d,%edi
  401db1:	e8 1a ef ff ff       	callq  400cd0 <puts@plt>
  401db6:	e9 8c 00 00 00       	jmpq   401e47 <notify_server+0x1d2>
  401dbb:	85 db                	test   %ebx,%ebx
  401dbd:	74 07                	je     401dc6 <notify_server+0x151>
  401dbf:	ba d1 33 40 00       	mov    $0x4033d1,%edx
  401dc4:	eb 05                	jmp    401dcb <notify_server+0x156>
  401dc6:	ba d6 33 40 00       	mov    $0x4033d6,%edx
  401dcb:	be 58 35 40 00       	mov    $0x403558,%esi
  401dd0:	bf 01 00 00 00       	mov    $0x1,%edi
  401dd5:	b8 00 00 00 00       	mov    $0x0,%eax
  401dda:	e8 21 f0 ff ff       	callq  400e00 <__printf_chk@plt>
  401ddf:	48 8b 15 7a 33 20 00 	mov    0x20337a(%rip),%rdx        # 605160 <user_id>
  401de6:	be 14 34 40 00       	mov    $0x403414,%esi
  401deb:	bf 01 00 00 00       	mov    $0x1,%edi
  401df0:	b8 00 00 00 00       	mov    $0x0,%eax
  401df5:	e8 06 f0 ff ff       	callq  400e00 <__printf_chk@plt>
  401dfa:	48 8b 15 77 33 20 00 	mov    0x203377(%rip),%rdx        # 605178 <course>
  401e01:	be 21 34 40 00       	mov    $0x403421,%esi
  401e06:	bf 01 00 00 00       	mov    $0x1,%edi
  401e0b:	b8 00 00 00 00       	mov    $0x0,%eax
  401e10:	e8 eb ef ff ff       	callq  400e00 <__printf_chk@plt>
  401e15:	48 8b 15 54 33 20 00 	mov    0x203354(%rip),%rdx        # 605170 <lab>
  401e1c:	be 2d 34 40 00       	mov    $0x40342d,%esi
  401e21:	bf 01 00 00 00       	mov    $0x1,%edi
  401e26:	b8 00 00 00 00       	mov    $0x0,%eax
  401e2b:	e8 d0 ef ff ff       	callq  400e00 <__printf_chk@plt>
  401e30:	48 89 e2             	mov    %rsp,%rdx
  401e33:	be 36 34 40 00       	mov    $0x403436,%esi
  401e38:	bf 01 00 00 00       	mov    $0x1,%edi
  401e3d:	b8 00 00 00 00       	mov    $0x0,%eax
  401e42:	e8 b9 ef ff ff       	callq  400e00 <__printf_chk@plt>
  401e47:	48 8b 84 24 08 40 00 	mov    0x4008(%rsp),%rax
  401e4e:	00 
  401e4f:	64 48 33 04 25 28 00 	xor    %fs:0x28,%rax
  401e56:	00 00 
  401e58:	74 05                	je     401e5f <notify_server+0x1ea>
  401e5a:	e8 91 ee ff ff       	callq  400cf0 <__stack_chk_fail@plt>
  401e5f:	48 81 c4 10 40 00 00 	add    $0x4010,%rsp
  401e66:	5b                   	pop    %rbx
  401e67:	c3                   	retq   

0000000000401e68 <validate>:
  401e68:	53                   	push   %rbx
  401e69:	89 fb                	mov    %edi,%ebx
  401e6b:	83 3d b6 36 20 00 00 	cmpl   $0x0,0x2036b6(%rip)        # 605528 <is_checker>
  401e72:	74 6b                	je     401edf <validate+0x77>
  401e74:	39 3d a2 36 20 00    	cmp    %edi,0x2036a2(%rip)        # 60551c <vlevel>
  401e7a:	74 14                	je     401e90 <validate+0x28>
  401e7c:	bf 42 34 40 00       	mov    $0x403442,%edi
  401e81:	e8 4a ee ff ff       	callq  400cd0 <puts@plt>
  401e86:	b8 00 00 00 00       	mov    $0x0,%eax
  401e8b:	e8 5e fd ff ff       	callq  401bee <check_fail>
  401e90:	8b 15 82 36 20 00    	mov    0x203682(%rip),%edx        # 605518 <check_level>
  401e96:	39 d7                	cmp    %edx,%edi
  401e98:	74 20                	je     401eba <validate+0x52>
  401e9a:	89 f9                	mov    %edi,%ecx
  401e9c:	be 80 35 40 00       	mov    $0x403580,%esi
  401ea1:	bf 01 00 00 00       	mov    $0x1,%edi
  401ea6:	b8 00 00 00 00       	mov    $0x0,%eax
  401eab:	e8 50 ef ff ff       	callq  400e00 <__printf_chk@plt>
  401eb0:	b8 00 00 00 00       	mov    $0x0,%eax
  401eb5:	e8 34 fd ff ff       	callq  401bee <check_fail>
  401eba:	0f be 15 87 42 20 00 	movsbl 0x204287(%rip),%edx        # 606148 <target_prefix>
  401ec1:	41 b8 40 55 60 00    	mov    $0x605540,%r8d
  401ec7:	89 f9                	mov    %edi,%ecx
  401ec9:	be 60 34 40 00       	mov    $0x403460,%esi
  401ece:	bf 01 00 00 00       	mov    $0x1,%edi
  401ed3:	b8 00 00 00 00       	mov    $0x0,%eax
  401ed8:	e8 23 ef ff ff       	callq  400e00 <__printf_chk@plt>
  401edd:	eb 49                	jmp    401f28 <validate+0xc0>
  401edf:	3b 3d 37 36 20 00    	cmp    0x203637(%rip),%edi        # 60551c <vlevel>
  401ee5:	74 18                	je     401eff <validate+0x97>
  401ee7:	bf 42 34 40 00       	mov    $0x403442,%edi
  401eec:	e8 df ed ff ff       	callq  400cd0 <puts@plt>
  401ef1:	89 de                	mov    %ebx,%esi
  401ef3:	bf 00 00 00 00       	mov    $0x0,%edi
  401ef8:	e8 78 fd ff ff       	callq  401c75 <notify_server>
  401efd:	eb 29                	jmp    401f28 <validate+0xc0>
  401eff:	0f be 0d 42 42 20 00 	movsbl 0x204242(%rip),%ecx        # 606148 <target_prefix>
  401f06:	89 fa                	mov    %edi,%edx
  401f08:	be a8 35 40 00       	mov    $0x4035a8,%esi
  401f0d:	bf 01 00 00 00       	mov    $0x1,%edi
  401f12:	b8 00 00 00 00       	mov    $0x0,%eax
  401f17:	e8 e4 ee ff ff       	callq  400e00 <__printf_chk@plt>
  401f1c:	89 de                	mov    %ebx,%esi
  401f1e:	bf 01 00 00 00       	mov    $0x1,%edi
  401f23:	e8 4d fd ff ff       	callq  401c75 <notify_server>
  401f28:	5b                   	pop    %rbx
  401f29:	c3                   	retq   

0000000000401f2a <fail>:
  401f2a:	48 83 ec 08          	sub    $0x8,%rsp
  401f2e:	83 3d f3 35 20 00 00 	cmpl   $0x0,0x2035f3(%rip)        # 605528 <is_checker>
  401f35:	74 0a                	je     401f41 <fail+0x17>
  401f37:	b8 00 00 00 00       	mov    $0x0,%eax
  401f3c:	e8 ad fc ff ff       	callq  401bee <check_fail>
  401f41:	89 fe                	mov    %edi,%esi
  401f43:	bf 00 00 00 00       	mov    $0x0,%edi
  401f48:	e8 28 fd ff ff       	callq  401c75 <notify_server>
  401f4d:	48 83 c4 08          	add    $0x8,%rsp
  401f51:	c3                   	retq   

0000000000401f52 <bushandler>:
  401f52:	48 83 ec 08          	sub    $0x8,%rsp
  401f56:	83 3d cb 35 20 00 00 	cmpl   $0x0,0x2035cb(%rip)        # 605528 <is_checker>
  401f5d:	74 14                	je     401f73 <bushandler+0x21>
  401f5f:	bf 75 34 40 00       	mov    $0x403475,%edi
  401f64:	e8 67 ed ff ff       	callq  400cd0 <puts@plt>
  401f69:	b8 00 00 00 00       	mov    $0x0,%eax
  401f6e:	e8 7b fc ff ff       	callq  401bee <check_fail>
  401f73:	bf e0 35 40 00       	mov    $0x4035e0,%edi
  401f78:	e8 53 ed ff ff       	callq  400cd0 <puts@plt>
  401f7d:	bf 7f 34 40 00       	mov    $0x40347f,%edi
  401f82:	e8 49 ed ff ff       	callq  400cd0 <puts@plt>
  401f87:	be 00 00 00 00       	mov    $0x0,%esi
  401f8c:	bf 00 00 00 00       	mov    $0x0,%edi
  401f91:	e8 df fc ff ff       	callq  401c75 <notify_server>
  401f96:	bf 01 00 00 00       	mov    $0x1,%edi
  401f9b:	e8 b0 ee ff ff       	callq  400e50 <exit@plt>

0000000000401fa0 <seghandler>:
  401fa0:	48 83 ec 08          	sub    $0x8,%rsp
  401fa4:	83 3d 7d 35 20 00 00 	cmpl   $0x0,0x20357d(%rip)        # 605528 <is_checker>
  401fab:	74 14                	je     401fc1 <seghandler+0x21>
  401fad:	bf 95 34 40 00       	mov    $0x403495,%edi
  401fb2:	e8 19 ed ff ff       	callq  400cd0 <puts@plt>
  401fb7:	b8 00 00 00 00       	mov    $0x0,%eax
  401fbc:	e8 2d fc ff ff       	callq  401bee <check_fail>
  401fc1:	bf 00 36 40 00       	mov    $0x403600,%edi
  401fc6:	e8 05 ed ff ff       	callq  400cd0 <puts@plt>
  401fcb:	bf 7f 34 40 00       	mov    $0x40347f,%edi
  401fd0:	e8 fb ec ff ff       	callq  400cd0 <puts@plt>
  401fd5:	be 00 00 00 00       	mov    $0x0,%esi
  401fda:	bf 00 00 00 00       	mov    $0x0,%edi
  401fdf:	e8 91 fc ff ff       	callq  401c75 <notify_server>
  401fe4:	bf 01 00 00 00       	mov    $0x1,%edi
  401fe9:	e8 62 ee ff ff       	callq  400e50 <exit@plt>

0000000000401fee <illegalhandler>:
  401fee:	48 83 ec 08          	sub    $0x8,%rsp
  401ff2:	83 3d 2f 35 20 00 00 	cmpl   $0x0,0x20352f(%rip)        # 605528 <is_checker>
  401ff9:	74 14                	je     40200f <illegalhandler+0x21>
  401ffb:	bf a8 34 40 00       	mov    $0x4034a8,%edi
  402000:	e8 cb ec ff ff       	callq  400cd0 <puts@plt>
  402005:	b8 00 00 00 00       	mov    $0x0,%eax
  40200a:	e8 df fb ff ff       	callq  401bee <check_fail>
  40200f:	bf 28 36 40 00       	mov    $0x403628,%edi
  402014:	e8 b7 ec ff ff       	callq  400cd0 <puts@plt>
  402019:	bf 7f 34 40 00       	mov    $0x40347f,%edi
  40201e:	e8 ad ec ff ff       	callq  400cd0 <puts@plt>
  402023:	be 00 00 00 00       	mov    $0x0,%esi
  402028:	bf 00 00 00 00       	mov    $0x0,%edi
  40202d:	e8 43 fc ff ff       	callq  401c75 <notify_server>
  402032:	bf 01 00 00 00       	mov    $0x1,%edi
  402037:	e8 14 ee ff ff       	callq  400e50 <exit@plt>

000000000040203c <sigalrmhandler>:
  40203c:	48 83 ec 08          	sub    $0x8,%rsp
  402040:	83 3d e1 34 20 00 00 	cmpl   $0x0,0x2034e1(%rip)        # 605528 <is_checker>
  402047:	74 14                	je     40205d <sigalrmhandler+0x21>
  402049:	bf bc 34 40 00       	mov    $0x4034bc,%edi
  40204e:	e8 7d ec ff ff       	callq  400cd0 <puts@plt>
  402053:	b8 00 00 00 00       	mov    $0x0,%eax
  402058:	e8 91 fb ff ff       	callq  401bee <check_fail>
  40205d:	ba 05 00 00 00       	mov    $0x5,%edx
  402062:	be 58 36 40 00       	mov    $0x403658,%esi
  402067:	bf 01 00 00 00       	mov    $0x1,%edi
  40206c:	b8 00 00 00 00       	mov    $0x0,%eax
  402071:	e8 8a ed ff ff       	callq  400e00 <__printf_chk@plt>
  402076:	be 00 00 00 00       	mov    $0x0,%esi
  40207b:	bf 00 00 00 00       	mov    $0x0,%edi
  402080:	e8 f0 fb ff ff       	callq  401c75 <notify_server>
  402085:	bf 01 00 00 00       	mov    $0x1,%edi
  40208a:	e8 c1 ed ff ff       	callq  400e50 <exit@plt>

000000000040208f <launch>:
  40208f:	55                   	push   %rbp
  402090:	48 89 e5             	mov    %rsp,%rbp
  402093:	48 83 ec 10          	sub    $0x10,%rsp
  402097:	48 89 fa             	mov    %rdi,%rdx
  40209a:	64 48 8b 04 25 28 00 	mov    %fs:0x28,%rax
  4020a1:	00 00 
  4020a3:	48 89 45 f8          	mov    %rax,-0x8(%rbp)
  4020a7:	31 c0                	xor    %eax,%eax
  4020a9:	48 8d 47 1e          	lea    0x1e(%rdi),%rax
  4020ad:	48 83 e0 f0          	and    $0xfffffffffffffff0,%rax
  4020b1:	48 29 c4             	sub    %rax,%rsp
  4020b4:	48 8d 7c 24 0f       	lea    0xf(%rsp),%rdi
  4020b9:	48 83 e7 f0          	and    $0xfffffffffffffff0,%rdi
  4020bd:	be f4 00 00 00       	mov    $0xf4,%esi
  4020c2:	e8 49 ec ff ff       	callq  400d10 <memset@plt>
  4020c7:	48 8b 05 f2 33 20 00 	mov    0x2033f2(%rip),%rax        # 6054c0 <stdin@@GLIBC_2.2.5>
  4020ce:	48 39 05 3b 34 20 00 	cmp    %rax,0x20343b(%rip)        # 605510 <infile>
  4020d5:	75 14                	jne    4020eb <launch+0x5c>
  4020d7:	be c4 34 40 00       	mov    $0x4034c4,%esi
  4020dc:	bf 01 00 00 00       	mov    $0x1,%edi
  4020e1:	b8 00 00 00 00       	mov    $0x0,%eax
  4020e6:	e8 15 ed ff ff       	callq  400e00 <__printf_chk@plt>
  4020eb:	c7 05 27 34 20 00 00 	movl   $0x0,0x203427(%rip)        # 60551c <vlevel>
  4020f2:	00 00 00 
  4020f5:	b8 00 00 00 00       	mov    $0x0,%eax
  4020fa:	e8 38 f9 ff ff       	callq  401a37 <test>
  4020ff:	83 3d 22 34 20 00 00 	cmpl   $0x0,0x203422(%rip)        # 605528 <is_checker>
  402106:	74 14                	je     40211c <launch+0x8d>
  402108:	bf d1 34 40 00       	mov    $0x4034d1,%edi
  40210d:	e8 be eb ff ff       	callq  400cd0 <puts@plt>
  402112:	b8 00 00 00 00       	mov    $0x0,%eax
  402117:	e8 d2 fa ff ff       	callq  401bee <check_fail>
  40211c:	bf dc 34 40 00       	mov    $0x4034dc,%edi
  402121:	e8 aa eb ff ff       	callq  400cd0 <puts@plt>
  402126:	48 8b 45 f8          	mov    -0x8(%rbp),%rax
  40212a:	64 48 33 04 25 28 00 	xor    %fs:0x28,%rax
  402131:	00 00 
  402133:	74 05                	je     40213a <launch+0xab>
  402135:	e8 b6 eb ff ff       	callq  400cf0 <__stack_chk_fail@plt>
  40213a:	c9                   	leaveq 
  40213b:	c3                   	retq   

000000000040213c <stable_launch>:
  40213c:	53                   	push   %rbx
  40213d:	48 89 3d c4 33 20 00 	mov    %rdi,0x2033c4(%rip)        # 605508 <global_offset>
  402144:	41 b9 00 00 00 00    	mov    $0x0,%r9d
  40214a:	41 b8 00 00 00 00    	mov    $0x0,%r8d
  402150:	b9 32 01 00 00       	mov    $0x132,%ecx
  402155:	ba 07 00 00 00       	mov    $0x7,%edx
  40215a:	be 00 00 10 00       	mov    $0x100000,%esi
  40215f:	bf 00 60 58 55       	mov    $0x55586000,%edi
  402164:	e8 97 eb ff ff       	callq  400d00 <mmap@plt>
  402169:	48 89 c3             	mov    %rax,%rbx
  40216c:	48 3d 00 60 58 55    	cmp    $0x55586000,%rax
  402172:	74 37                	je     4021ab <stable_launch+0x6f>
  402174:	be 00 00 10 00       	mov    $0x100000,%esi
  402179:	48 89 c7             	mov    %rax,%rdi
  40217c:	e8 6f ec ff ff       	callq  400df0 <munmap@plt>
  402181:	b9 00 60 58 55       	mov    $0x55586000,%ecx
  402186:	ba 90 36 40 00       	mov    $0x403690,%edx
  40218b:	be 01 00 00 00       	mov    $0x1,%esi
  402190:	48 8b 3d 49 33 20 00 	mov    0x203349(%rip),%rdi        # 6054e0 <stderr@@GLIBC_2.2.5>
  402197:	b8 00 00 00 00       	mov    $0x0,%eax
  40219c:	e8 cf ec ff ff       	callq  400e70 <__fprintf_chk@plt>
  4021a1:	bf 01 00 00 00       	mov    $0x1,%edi
  4021a6:	e8 a5 ec ff ff       	callq  400e50 <exit@plt>
  4021ab:	48 8d 90 f8 ff 0f 00 	lea    0xffff8(%rax),%rdx
  4021b2:	48 89 15 97 3f 20 00 	mov    %rdx,0x203f97(%rip)        # 606150 <stack_top>
  4021b9:	48 89 e0             	mov    %rsp,%rax
  4021bc:	48 89 d4             	mov    %rdx,%rsp
  4021bf:	48 89 c2             	mov    %rax,%rdx
  4021c2:	48 89 15 37 33 20 00 	mov    %rdx,0x203337(%rip)        # 605500 <global_save_stack>
  4021c9:	48 8b 3d 38 33 20 00 	mov    0x203338(%rip),%rdi        # 605508 <global_offset>
  4021d0:	e8 ba fe ff ff       	callq  40208f <launch>
  4021d5:	48 8b 05 24 33 20 00 	mov    0x203324(%rip),%rax        # 605500 <global_save_stack>
  4021dc:	48 89 c4             	mov    %rax,%rsp
  4021df:	be 00 00 10 00       	mov    $0x100000,%esi
  4021e4:	48 89 df             	mov    %rbx,%rdi
  4021e7:	e8 04 ec ff ff       	callq  400df0 <munmap@plt>
  4021ec:	5b                   	pop    %rbx
  4021ed:	c3                   	retq   

00000000004021ee <rio_readinitb>:
  4021ee:	89 37                	mov    %esi,(%rdi)
  4021f0:	c7 47 04 00 00 00 00 	movl   $0x0,0x4(%rdi)
  4021f7:	48 8d 47 10          	lea    0x10(%rdi),%rax
  4021fb:	48 89 47 08          	mov    %rax,0x8(%rdi)
  4021ff:	c3                   	retq   

0000000000402200 <sigalrm_handler>:
  402200:	48 83 ec 08          	sub    $0x8,%rsp
  402204:	b9 00 00 00 00       	mov    $0x0,%ecx
  402209:	ba d0 36 40 00       	mov    $0x4036d0,%edx
  40220e:	be 01 00 00 00       	mov    $0x1,%esi
  402213:	48 8b 3d c6 32 20 00 	mov    0x2032c6(%rip),%rdi        # 6054e0 <stderr@@GLIBC_2.2.5>
  40221a:	b8 00 00 00 00       	mov    $0x0,%eax
  40221f:	e8 4c ec ff ff       	callq  400e70 <__fprintf_chk@plt>
  402224:	bf 01 00 00 00       	mov    $0x1,%edi
  402229:	e8 22 ec ff ff       	callq  400e50 <exit@plt>

000000000040222e <rio_writen>:
  40222e:	41 55                	push   %r13
  402230:	41 54                	push   %r12
  402232:	55                   	push   %rbp
  402233:	53                   	push   %rbx
  402234:	48 83 ec 08          	sub    $0x8,%rsp
  402238:	41 89 fc             	mov    %edi,%r12d
  40223b:	48 89 f5             	mov    %rsi,%rbp
  40223e:	49 89 d5             	mov    %rdx,%r13
  402241:	48 89 d3             	mov    %rdx,%rbx
  402244:	eb 28                	jmp    40226e <rio_writen+0x40>
  402246:	48 89 da             	mov    %rbx,%rdx
  402249:	48 89 ee             	mov    %rbp,%rsi
  40224c:	44 89 e7             	mov    %r12d,%edi
  40224f:	e8 8c ea ff ff       	callq  400ce0 <write@plt>
  402254:	48 85 c0             	test   %rax,%rax
  402257:	7f 0f                	jg     402268 <rio_writen+0x3a>
  402259:	e8 32 ea ff ff       	callq  400c90 <__errno_location@plt>
  40225e:	83 38 04             	cmpl   $0x4,(%rax)
  402261:	75 15                	jne    402278 <rio_writen+0x4a>
  402263:	b8 00 00 00 00       	mov    $0x0,%eax
  402268:	48 29 c3             	sub    %rax,%rbx
  40226b:	48 01 c5             	add    %rax,%rbp
  40226e:	48 85 db             	test   %rbx,%rbx
  402271:	75 d3                	jne    402246 <rio_writen+0x18>
  402273:	4c 89 e8             	mov    %r13,%rax
  402276:	eb 07                	jmp    40227f <rio_writen+0x51>
  402278:	48 c7 c0 ff ff ff ff 	mov    $0xffffffffffffffff,%rax
  40227f:	48 83 c4 08          	add    $0x8,%rsp
  402283:	5b                   	pop    %rbx
  402284:	5d                   	pop    %rbp
  402285:	41 5c                	pop    %r12
  402287:	41 5d                	pop    %r13
  402289:	c3                   	retq   

000000000040228a <rio_read>:
  40228a:	41 55                	push   %r13
  40228c:	41 54                	push   %r12
  40228e:	55                   	push   %rbp
  40228f:	53                   	push   %rbx
  402290:	48 83 ec 08          	sub    $0x8,%rsp
  402294:	48 89 fb             	mov    %rdi,%rbx
  402297:	49 89 f5             	mov    %rsi,%r13
  40229a:	49 89 d4             	mov    %rdx,%r12
  40229d:	eb 2e                	jmp    4022cd <rio_read+0x43>
  40229f:	48 8d 6b 10          	lea    0x10(%rbx),%rbp
  4022a3:	8b 3b                	mov    (%rbx),%edi
  4022a5:	ba 00 20 00 00       	mov    $0x2000,%edx
  4022aa:	48 89 ee             	mov    %rbp,%rsi
  4022ad:	e8 8e ea ff ff       	callq  400d40 <read@plt>
  4022b2:	89 43 04             	mov    %eax,0x4(%rbx)
  4022b5:	85 c0                	test   %eax,%eax
  4022b7:	79 0c                	jns    4022c5 <rio_read+0x3b>
  4022b9:	e8 d2 e9 ff ff       	callq  400c90 <__errno_location@plt>
  4022be:	83 38 04             	cmpl   $0x4,(%rax)
  4022c1:	74 0a                	je     4022cd <rio_read+0x43>
  4022c3:	eb 37                	jmp    4022fc <rio_read+0x72>
  4022c5:	85 c0                	test   %eax,%eax
  4022c7:	74 3c                	je     402305 <rio_read+0x7b>
  4022c9:	48 89 6b 08          	mov    %rbp,0x8(%rbx)
  4022cd:	8b 6b 04             	mov    0x4(%rbx),%ebp
  4022d0:	85 ed                	test   %ebp,%ebp
  4022d2:	7e cb                	jle    40229f <rio_read+0x15>
  4022d4:	89 e8                	mov    %ebp,%eax
  4022d6:	49 39 c4             	cmp    %rax,%r12
  4022d9:	77 03                	ja     4022de <rio_read+0x54>
  4022db:	44 89 e5             	mov    %r12d,%ebp
  4022de:	4c 63 e5             	movslq %ebp,%r12
  4022e1:	48 8b 73 08          	mov    0x8(%rbx),%rsi
  4022e5:	4c 89 e2             	mov    %r12,%rdx
  4022e8:	4c 89 ef             	mov    %r13,%rdi
  4022eb:	e8 b0 ea ff ff       	callq  400da0 <memcpy@plt>
  4022f0:	4c 01 63 08          	add    %r12,0x8(%rbx)
  4022f4:	29 6b 04             	sub    %ebp,0x4(%rbx)
  4022f7:	4c 89 e0             	mov    %r12,%rax
  4022fa:	eb 0e                	jmp    40230a <rio_read+0x80>
  4022fc:	48 c7 c0 ff ff ff ff 	mov    $0xffffffffffffffff,%rax
  402303:	eb 05                	jmp    40230a <rio_read+0x80>
  402305:	b8 00 00 00 00       	mov    $0x0,%eax
  40230a:	48 83 c4 08          	add    $0x8,%rsp
  40230e:	5b                   	pop    %rbx
  40230f:	5d                   	pop    %rbp
  402310:	41 5c                	pop    %r12
  402312:	41 5d                	pop    %r13
  402314:	c3                   	retq   

0000000000402315 <rio_readlineb>:
  402315:	41 55                	push   %r13
  402317:	41 54                	push   %r12
  402319:	55                   	push   %rbp
  40231a:	53                   	push   %rbx
  40231b:	48 83 ec 18          	sub    $0x18,%rsp
  40231f:	49 89 fd             	mov    %rdi,%r13
  402322:	48 89 f5             	mov    %rsi,%rbp
  402325:	49 89 d4             	mov    %rdx,%r12
  402328:	64 48 8b 04 25 28 00 	mov    %fs:0x28,%rax
  40232f:	00 00 
  402331:	48 89 44 24 08       	mov    %rax,0x8(%rsp)
  402336:	31 c0                	xor    %eax,%eax
  402338:	bb 01 00 00 00       	mov    $0x1,%ebx
  40233d:	eb 3f                	jmp    40237e <rio_readlineb+0x69>
  40233f:	ba 01 00 00 00       	mov    $0x1,%edx
  402344:	48 8d 74 24 07       	lea    0x7(%rsp),%rsi
  402349:	4c 89 ef             	mov    %r13,%rdi
  40234c:	e8 39 ff ff ff       	callq  40228a <rio_read>
  402351:	83 f8 01             	cmp    $0x1,%eax
  402354:	75 15                	jne    40236b <rio_readlineb+0x56>
  402356:	48 8d 45 01          	lea    0x1(%rbp),%rax
  40235a:	0f b6 54 24 07       	movzbl 0x7(%rsp),%edx
  40235f:	88 55 00             	mov    %dl,0x0(%rbp)
  402362:	80 7c 24 07 0a       	cmpb   $0xa,0x7(%rsp)
  402367:	75 0e                	jne    402377 <rio_readlineb+0x62>
  402369:	eb 1a                	jmp    402385 <rio_readlineb+0x70>
  40236b:	85 c0                	test   %eax,%eax
  40236d:	75 22                	jne    402391 <rio_readlineb+0x7c>
  40236f:	48 83 fb 01          	cmp    $0x1,%rbx
  402373:	75 13                	jne    402388 <rio_readlineb+0x73>
  402375:	eb 23                	jmp    40239a <rio_readlineb+0x85>
  402377:	48 83 c3 01          	add    $0x1,%rbx
  40237b:	48 89 c5             	mov    %rax,%rbp
  40237e:	4c 39 e3             	cmp    %r12,%rbx
  402381:	72 bc                	jb     40233f <rio_readlineb+0x2a>
  402383:	eb 03                	jmp    402388 <rio_readlineb+0x73>
  402385:	48 89 c5             	mov    %rax,%rbp
  402388:	c6 45 00 00          	movb   $0x0,0x0(%rbp)
  40238c:	48 89 d8             	mov    %rbx,%rax
  40238f:	eb 0e                	jmp    40239f <rio_readlineb+0x8a>
  402391:	48 c7 c0 ff ff ff ff 	mov    $0xffffffffffffffff,%rax
  402398:	eb 05                	jmp    40239f <rio_readlineb+0x8a>
  40239a:	b8 00 00 00 00       	mov    $0x0,%eax
  40239f:	48 8b 4c 24 08       	mov    0x8(%rsp),%rcx
  4023a4:	64 48 33 0c 25 28 00 	xor    %fs:0x28,%rcx
  4023ab:	00 00 
  4023ad:	74 05                	je     4023b4 <rio_readlineb+0x9f>
  4023af:	e8 3c e9 ff ff       	callq  400cf0 <__stack_chk_fail@plt>
  4023b4:	48 83 c4 18          	add    $0x18,%rsp
  4023b8:	5b                   	pop    %rbx
  4023b9:	5d                   	pop    %rbp
  4023ba:	41 5c                	pop    %r12
  4023bc:	41 5d                	pop    %r13
  4023be:	c3                   	retq   

00000000004023bf <urlencode>:
  4023bf:	41 54                	push   %r12
  4023c1:	55                   	push   %rbp
  4023c2:	53                   	push   %rbx
  4023c3:	48 83 ec 10          	sub    $0x10,%rsp
  4023c7:	48 89 fb             	mov    %rdi,%rbx
  4023ca:	48 89 f5             	mov    %rsi,%rbp
  4023cd:	64 48 8b 04 25 28 00 	mov    %fs:0x28,%rax
  4023d4:	00 00 
  4023d6:	48 89 44 24 08       	mov    %rax,0x8(%rsp)
  4023db:	31 c0                	xor    %eax,%eax
  4023dd:	48 c7 c1 ff ff ff ff 	mov    $0xffffffffffffffff,%rcx
  4023e4:	f2 ae                	repnz scas %es:(%rdi),%al
  4023e6:	48 f7 d1             	not    %rcx
  4023e9:	8d 41 ff             	lea    -0x1(%rcx),%eax
  4023ec:	e9 aa 00 00 00       	jmpq   40249b <urlencode+0xdc>
  4023f1:	44 0f b6 03          	movzbl (%rbx),%r8d
  4023f5:	41 80 f8 2a          	cmp    $0x2a,%r8b
  4023f9:	0f 94 c2             	sete   %dl
  4023fc:	41 80 f8 2d          	cmp    $0x2d,%r8b
  402400:	0f 94 c0             	sete   %al
  402403:	08 c2                	or     %al,%dl
  402405:	75 24                	jne    40242b <urlencode+0x6c>
  402407:	41 80 f8 2e          	cmp    $0x2e,%r8b
  40240b:	74 1e                	je     40242b <urlencode+0x6c>
  40240d:	41 80 f8 5f          	cmp    $0x5f,%r8b
  402411:	74 18                	je     40242b <urlencode+0x6c>
  402413:	41 8d 40 d0          	lea    -0x30(%r8),%eax
  402417:	3c 09                	cmp    $0x9,%al
  402419:	76 10                	jbe    40242b <urlencode+0x6c>
  40241b:	41 8d 40 bf          	lea    -0x41(%r8),%eax
  40241f:	3c 19                	cmp    $0x19,%al
  402421:	76 08                	jbe    40242b <urlencode+0x6c>
  402423:	41 8d 40 9f          	lea    -0x61(%r8),%eax
  402427:	3c 19                	cmp    $0x19,%al
  402429:	77 0a                	ja     402435 <urlencode+0x76>
  40242b:	44 88 45 00          	mov    %r8b,0x0(%rbp)
  40242f:	48 8d 6d 01          	lea    0x1(%rbp),%rbp
  402433:	eb 5f                	jmp    402494 <urlencode+0xd5>
  402435:	41 80 f8 20          	cmp    $0x20,%r8b
  402439:	75 0a                	jne    402445 <urlencode+0x86>
  40243b:	c6 45 00 2b          	movb   $0x2b,0x0(%rbp)
  40243f:	48 8d 6d 01          	lea    0x1(%rbp),%rbp
  402443:	eb 4f                	jmp    402494 <urlencode+0xd5>
  402445:	41 8d 40 e0          	lea    -0x20(%r8),%eax
  402449:	3c 5f                	cmp    $0x5f,%al
  40244b:	0f 96 c2             	setbe  %dl
  40244e:	41 80 f8 09          	cmp    $0x9,%r8b
  402452:	0f 94 c0             	sete   %al
  402455:	08 c2                	or     %al,%dl
  402457:	74 50                	je     4024a9 <urlencode+0xea>
  402459:	45 0f b6 c0          	movzbl %r8b,%r8d
  40245d:	b9 68 37 40 00       	mov    $0x403768,%ecx
  402462:	ba 08 00 00 00       	mov    $0x8,%edx
  402467:	be 01 00 00 00       	mov    $0x1,%esi
  40246c:	48 89 e7             	mov    %rsp,%rdi
  40246f:	b8 00 00 00 00       	mov    $0x0,%eax
  402474:	e8 07 ea ff ff       	callq  400e80 <__sprintf_chk@plt>
  402479:	0f b6 04 24          	movzbl (%rsp),%eax
  40247d:	88 45 00             	mov    %al,0x0(%rbp)
  402480:	0f b6 44 24 01       	movzbl 0x1(%rsp),%eax
  402485:	88 45 01             	mov    %al,0x1(%rbp)
  402488:	0f b6 44 24 02       	movzbl 0x2(%rsp),%eax
  40248d:	88 45 02             	mov    %al,0x2(%rbp)
  402490:	48 8d 6d 03          	lea    0x3(%rbp),%rbp
  402494:	48 83 c3 01          	add    $0x1,%rbx
  402498:	44 89 e0             	mov    %r12d,%eax
  40249b:	44 8d 60 ff          	lea    -0x1(%rax),%r12d
  40249f:	85 c0                	test   %eax,%eax
  4024a1:	0f 85 4a ff ff ff    	jne    4023f1 <urlencode+0x32>
  4024a7:	eb 05                	jmp    4024ae <urlencode+0xef>
  4024a9:	b8 ff ff ff ff       	mov    $0xffffffff,%eax
  4024ae:	48 8b 74 24 08       	mov    0x8(%rsp),%rsi
  4024b3:	64 48 33 34 25 28 00 	xor    %fs:0x28,%rsi
  4024ba:	00 00 
  4024bc:	74 05                	je     4024c3 <urlencode+0x104>
  4024be:	e8 2d e8 ff ff       	callq  400cf0 <__stack_chk_fail@plt>
  4024c3:	48 83 c4 10          	add    $0x10,%rsp
  4024c7:	5b                   	pop    %rbx
  4024c8:	5d                   	pop    %rbp
  4024c9:	41 5c                	pop    %r12
  4024cb:	c3                   	retq   

00000000004024cc <submitr>:
  4024cc:	41 57                	push   %r15
  4024ce:	41 56                	push   %r14
  4024d0:	41 55                	push   %r13
  4024d2:	41 54                	push   %r12
  4024d4:	55                   	push   %rbp
  4024d5:	53                   	push   %rbx
  4024d6:	48 81 ec 58 a0 00 00 	sub    $0xa058,%rsp
  4024dd:	49 89 fc             	mov    %rdi,%r12
  4024e0:	89 74 24 04          	mov    %esi,0x4(%rsp)
  4024e4:	49 89 d7             	mov    %rdx,%r15
  4024e7:	49 89 ce             	mov    %rcx,%r14
  4024ea:	4c 89 44 24 08       	mov    %r8,0x8(%rsp)
  4024ef:	4d 89 cd             	mov    %r9,%r13
  4024f2:	48 8b 9c 24 90 a0 00 	mov    0xa090(%rsp),%rbx
  4024f9:	00 
  4024fa:	64 48 8b 04 25 28 00 	mov    %fs:0x28,%rax
  402501:	00 00 
  402503:	48 89 84 24 48 a0 00 	mov    %rax,0xa048(%rsp)
  40250a:	00 
  40250b:	31 c0                	xor    %eax,%eax
  40250d:	c7 44 24 1c 00 00 00 	movl   $0x0,0x1c(%rsp)
  402514:	00 
  402515:	ba 00 00 00 00       	mov    $0x0,%edx
  40251a:	be 01 00 00 00       	mov    $0x1,%esi
  40251f:	bf 02 00 00 00       	mov    $0x2,%edi
  402524:	e8 67 e9 ff ff       	callq  400e90 <socket@plt>
  402529:	85 c0                	test   %eax,%eax
  40252b:	79 4e                	jns    40257b <submitr+0xaf>
  40252d:	48 b8 45 72 72 6f 72 	movabs $0x43203a726f727245,%rax
  402534:	3a 20 43 
  402537:	48 89 03             	mov    %rax,(%rbx)
  40253a:	48 b8 6c 69 65 6e 74 	movabs $0x6e7520746e65696c,%rax
  402541:	20 75 6e 
  402544:	48 89 43 08          	mov    %rax,0x8(%rbx)
  402548:	48 b8 61 62 6c 65 20 	movabs $0x206f7420656c6261,%rax
  40254f:	74 6f 20 
  402552:	48 89 43 10          	mov    %rax,0x10(%rbx)
  402556:	48 b8 63 72 65 61 74 	movabs $0x7320657461657263,%rax
  40255d:	65 20 73 
  402560:	48 89 43 18          	mov    %rax,0x18(%rbx)
  402564:	c7 43 20 6f 63 6b 65 	movl   $0x656b636f,0x20(%rbx)
  40256b:	66 c7 43 24 74 00    	movw   $0x74,0x24(%rbx)
  402571:	b8 ff ff ff ff       	mov    $0xffffffff,%eax
  402576:	e9 97 06 00 00       	jmpq   402c12 <submitr+0x746>
  40257b:	89 c5                	mov    %eax,%ebp
  40257d:	4c 89 e7             	mov    %r12,%rdi
  402580:	e8 eb e7 ff ff       	callq  400d70 <gethostbyname@plt>
  402585:	48 85 c0             	test   %rax,%rax
  402588:	75 67                	jne    4025f1 <submitr+0x125>
  40258a:	48 b8 45 72 72 6f 72 	movabs $0x44203a726f727245,%rax
  402591:	3a 20 44 
  402594:	48 89 03             	mov    %rax,(%rbx)
  402597:	48 b8 4e 53 20 69 73 	movabs $0x6e7520736920534e,%rax
  40259e:	20 75 6e 
  4025a1:	48 89 43 08          	mov    %rax,0x8(%rbx)
  4025a5:	48 b8 61 62 6c 65 20 	movabs $0x206f7420656c6261,%rax
  4025ac:	74 6f 20 
  4025af:	48 89 43 10          	mov    %rax,0x10(%rbx)
  4025b3:	48 b8 72 65 73 6f 6c 	movabs $0x2065766c6f736572,%rax
  4025ba:	76 65 20 
  4025bd:	48 89 43 18          	mov    %rax,0x18(%rbx)
  4025c1:	48 b8 73 65 72 76 65 	movabs $0x6120726576726573,%rax
  4025c8:	72 20 61 
  4025cb:	48 89 43 20          	mov    %rax,0x20(%rbx)
  4025cf:	c7 43 28 64 64 72 65 	movl   $0x65726464,0x28(%rbx)
  4025d6:	66 c7 43 2c 73 73    	movw   $0x7373,0x2c(%rbx)
  4025dc:	c6 43 2e 00          	movb   $0x0,0x2e(%rbx)
  4025e0:	89 ef                	mov    %ebp,%edi
  4025e2:	e8 49 e7 ff ff       	callq  400d30 <close@plt>
  4025e7:	b8 ff ff ff ff       	mov    $0xffffffff,%eax
  4025ec:	e9 21 06 00 00       	jmpq   402c12 <submitr+0x746>
  4025f1:	48 c7 44 24 20 00 00 	movq   $0x0,0x20(%rsp)
  4025f8:	00 00 
  4025fa:	48 c7 44 24 28 00 00 	movq   $0x0,0x28(%rsp)
  402601:	00 00 
  402603:	66 c7 44 24 20 02 00 	movw   $0x2,0x20(%rsp)
  40260a:	48 63 50 14          	movslq 0x14(%rax),%rdx
  40260e:	48 8b 40 18          	mov    0x18(%rax),%rax
  402612:	48 8b 30             	mov    (%rax),%rsi
  402615:	48 8d 7c 24 24       	lea    0x24(%rsp),%rdi
  40261a:	b9 0c 00 00 00       	mov    $0xc,%ecx
  40261f:	e8 5c e7 ff ff       	callq  400d80 <__memmove_chk@plt>
  402624:	0f b7 44 24 04       	movzwl 0x4(%rsp),%eax
  402629:	66 c1 c8 08          	ror    $0x8,%ax
  40262d:	66 89 44 24 22       	mov    %ax,0x22(%rsp)
  402632:	ba 10 00 00 00       	mov    $0x10,%edx
  402637:	48 8d 74 24 20       	lea    0x20(%rsp),%rsi
  40263c:	89 ef                	mov    %ebp,%edi
  40263e:	e8 1d e8 ff ff       	callq  400e60 <connect@plt>
  402643:	85 c0                	test   %eax,%eax
  402645:	79 59                	jns    4026a0 <submitr+0x1d4>
  402647:	48 b8 45 72 72 6f 72 	movabs $0x55203a726f727245,%rax
  40264e:	3a 20 55 
  402651:	48 89 03             	mov    %rax,(%rbx)
  402654:	48 b8 6e 61 62 6c 65 	movabs $0x6f7420656c62616e,%rax
  40265b:	20 74 6f 
  40265e:	48 89 43 08          	mov    %rax,0x8(%rbx)
  402662:	48 b8 20 63 6f 6e 6e 	movabs $0x7463656e6e6f6320,%rax
  402669:	65 63 74 
  40266c:	48 89 43 10          	mov    %rax,0x10(%rbx)
  402670:	48 b8 20 74 6f 20 74 	movabs $0x20656874206f7420,%rax
  402677:	68 65 20 
  40267a:	48 89 43 18          	mov    %rax,0x18(%rbx)
  40267e:	c7 43 20 73 65 72 76 	movl   $0x76726573,0x20(%rbx)
  402685:	66 c7 43 24 65 72    	movw   $0x7265,0x24(%rbx)
  40268b:	c6 43 26 00          	movb   $0x0,0x26(%rbx)
  40268f:	89 ef                	mov    %ebp,%edi
  402691:	e8 9a e6 ff ff       	callq  400d30 <close@plt>
  402696:	b8 ff ff ff ff       	mov    $0xffffffff,%eax
  40269b:	e9 72 05 00 00       	jmpq   402c12 <submitr+0x746>
  4026a0:	48 c7 c6 ff ff ff ff 	mov    $0xffffffffffffffff,%rsi
  4026a7:	b8 00 00 00 00       	mov    $0x0,%eax
  4026ac:	48 89 f1             	mov    %rsi,%rcx
  4026af:	4c 89 ef             	mov    %r13,%rdi
  4026b2:	f2 ae                	repnz scas %es:(%rdi),%al
  4026b4:	48 f7 d1             	not    %rcx
  4026b7:	48 89 ca             	mov    %rcx,%rdx
  4026ba:	48 89 f1             	mov    %rsi,%rcx
  4026bd:	4c 89 ff             	mov    %r15,%rdi
  4026c0:	f2 ae                	repnz scas %es:(%rdi),%al
  4026c2:	48 f7 d1             	not    %rcx
  4026c5:	49 89 c8             	mov    %rcx,%r8
  4026c8:	48 89 f1             	mov    %rsi,%rcx
  4026cb:	4c 89 f7             	mov    %r14,%rdi
  4026ce:	f2 ae                	repnz scas %es:(%rdi),%al
  4026d0:	48 f7 d1             	not    %rcx
  4026d3:	4d 8d 44 08 fe       	lea    -0x2(%r8,%rcx,1),%r8
  4026d8:	48 89 f1             	mov    %rsi,%rcx
  4026db:	48 8b 7c 24 08       	mov    0x8(%rsp),%rdi
  4026e0:	f2 ae                	repnz scas %es:(%rdi),%al
  4026e2:	48 89 c8             	mov    %rcx,%rax
  4026e5:	48 f7 d0             	not    %rax
  4026e8:	49 8d 4c 00 ff       	lea    -0x1(%r8,%rax,1),%rcx
  4026ed:	48 8d 44 52 fd       	lea    -0x3(%rdx,%rdx,2),%rax
  4026f2:	48 8d 84 01 80 00 00 	lea    0x80(%rcx,%rax,1),%rax
  4026f9:	00 
  4026fa:	48 3d 00 20 00 00    	cmp    $0x2000,%rax
  402700:	76 72                	jbe    402774 <submitr+0x2a8>
  402702:	48 b8 45 72 72 6f 72 	movabs $0x52203a726f727245,%rax
  402709:	3a 20 52 
  40270c:	48 89 03             	mov    %rax,(%rbx)
  40270f:	48 b8 65 73 75 6c 74 	movabs $0x747320746c757365,%rax
  402716:	20 73 74 
  402719:	48 89 43 08          	mov    %rax,0x8(%rbx)
  40271d:	48 b8 72 69 6e 67 20 	movabs $0x6f6f7420676e6972,%rax
  402724:	74 6f 6f 
  402727:	48 89 43 10          	mov    %rax,0x10(%rbx)
  40272b:	48 b8 20 6c 61 72 67 	movabs $0x202e656772616c20,%rax
  402732:	65 2e 20 
  402735:	48 89 43 18          	mov    %rax,0x18(%rbx)
  402739:	48 b8 49 6e 63 72 65 	movabs $0x6573616572636e49,%rax
  402740:	61 73 65 
  402743:	48 89 43 20          	mov    %rax,0x20(%rbx)
  402747:	48 b8 20 53 55 42 4d 	movabs $0x5254494d42555320,%rax
  40274e:	49 54 52 
  402751:	48 89 43 28          	mov    %rax,0x28(%rbx)
  402755:	48 b8 5f 4d 41 58 42 	movabs $0x46554258414d5f,%rax
  40275c:	55 46 00 
  40275f:	48 89 43 30          	mov    %rax,0x30(%rbx)
  402763:	89 ef                	mov    %ebp,%edi
  402765:	e8 c6 e5 ff ff       	callq  400d30 <close@plt>
  40276a:	b8 ff ff ff ff       	mov    $0xffffffff,%eax
  40276f:	e9 9e 04 00 00       	jmpq   402c12 <submitr+0x746>
  402774:	48 8d b4 24 40 40 00 	lea    0x4040(%rsp),%rsi
  40277b:	00 
  40277c:	b9 00 04 00 00       	mov    $0x400,%ecx
  402781:	b8 00 00 00 00       	mov    $0x0,%eax
  402786:	48 89 f7             	mov    %rsi,%rdi
  402789:	f3 48 ab             	rep stos %rax,%es:(%rdi)
  40278c:	4c 89 ef             	mov    %r13,%rdi
  40278f:	e8 2b fc ff ff       	callq  4023bf <urlencode>
  402794:	85 c0                	test   %eax,%eax
  402796:	0f 89 8a 00 00 00    	jns    402826 <submitr+0x35a>
  40279c:	48 b8 45 72 72 6f 72 	movabs $0x52203a726f727245,%rax
  4027a3:	3a 20 52 
  4027a6:	48 89 03             	mov    %rax,(%rbx)
  4027a9:	48 b8 65 73 75 6c 74 	movabs $0x747320746c757365,%rax
  4027b0:	20 73 74 
  4027b3:	48 89 43 08          	mov    %rax,0x8(%rbx)
  4027b7:	48 b8 72 69 6e 67 20 	movabs $0x6e6f6320676e6972,%rax
  4027be:	63 6f 6e 
  4027c1:	48 89 43 10          	mov    %rax,0x10(%rbx)
  4027c5:	48 b8 74 61 69 6e 73 	movabs $0x6e6120736e696174,%rax
  4027cc:	20 61 6e 
  4027cf:	48 89 43 18          	mov    %rax,0x18(%rbx)
  4027d3:	48 b8 20 69 6c 6c 65 	movabs $0x6c6167656c6c6920,%rax
  4027da:	67 61 6c 
  4027dd:	48 89 43 20          	mov    %rax,0x20(%rbx)
  4027e1:	48 b8 20 6f 72 20 75 	movabs $0x72706e7520726f20,%rax
  4027e8:	6e 70 72 
  4027eb:	48 89 43 28          	mov    %rax,0x28(%rbx)
  4027ef:	48 b8 69 6e 74 61 62 	movabs $0x20656c6261746e69,%rax
  4027f6:	6c 65 20 
  4027f9:	48 89 43 30          	mov    %rax,0x30(%rbx)
  4027fd:	48 b8 63 68 61 72 61 	movabs $0x6574636172616863,%rax
  402804:	63 74 65 
  402807:	48 89 43 38          	mov    %rax,0x38(%rbx)
  40280b:	66 c7 43 40 72 2e    	movw   $0x2e72,0x40(%rbx)
  402811:	c6 43 42 00          	movb   $0x0,0x42(%rbx)
  402815:	89 ef                	mov    %ebp,%edi
  402817:	e8 14 e5 ff ff       	callq  400d30 <close@plt>
  40281c:	b8 ff ff ff ff       	mov    $0xffffffff,%eax
  402821:	e9 ec 03 00 00       	jmpq   402c12 <submitr+0x746>
  402826:	4c 8d ac 24 40 20 00 	lea    0x2040(%rsp),%r13
  40282d:	00 
  40282e:	41 54                	push   %r12
  402830:	48 8d 84 24 48 40 00 	lea    0x4048(%rsp),%rax
  402837:	00 
  402838:	50                   	push   %rax
  402839:	4d 89 f9             	mov    %r15,%r9
  40283c:	4d 89 f0             	mov    %r14,%r8
  40283f:	b9 f8 36 40 00       	mov    $0x4036f8,%ecx
  402844:	ba 00 20 00 00       	mov    $0x2000,%edx
  402849:	be 01 00 00 00       	mov    $0x1,%esi
  40284e:	4c 89 ef             	mov    %r13,%rdi
  402851:	b8 00 00 00 00       	mov    $0x0,%eax
  402856:	e8 25 e6 ff ff       	callq  400e80 <__sprintf_chk@plt>
  40285b:	b8 00 00 00 00       	mov    $0x0,%eax
  402860:	48 c7 c1 ff ff ff ff 	mov    $0xffffffffffffffff,%rcx
  402867:	4c 89 ef             	mov    %r13,%rdi
  40286a:	f2 ae                	repnz scas %es:(%rdi),%al
  40286c:	48 f7 d1             	not    %rcx
  40286f:	48 8d 51 ff          	lea    -0x1(%rcx),%rdx
  402873:	4c 89 ee             	mov    %r13,%rsi
  402876:	89 ef                	mov    %ebp,%edi
  402878:	e8 b1 f9 ff ff       	callq  40222e <rio_writen>
  40287d:	48 83 c4 10          	add    $0x10,%rsp
  402881:	48 85 c0             	test   %rax,%rax
  402884:	79 6e                	jns    4028f4 <submitr+0x428>
  402886:	48 b8 45 72 72 6f 72 	movabs $0x43203a726f727245,%rax
  40288d:	3a 20 43 
  402890:	48 89 03             	mov    %rax,(%rbx)
  402893:	48 b8 6c 69 65 6e 74 	movabs $0x6e7520746e65696c,%rax
  40289a:	20 75 6e 
  40289d:	48 89 43 08          	mov    %rax,0x8(%rbx)
  4028a1:	48 b8 61 62 6c 65 20 	movabs $0x206f7420656c6261,%rax
  4028a8:	74 6f 20 
  4028ab:	48 89 43 10          	mov    %rax,0x10(%rbx)
  4028af:	48 b8 77 72 69 74 65 	movabs $0x6f74206574697277,%rax
  4028b6:	20 74 6f 
  4028b9:	48 89 43 18          	mov    %rax,0x18(%rbx)
  4028bd:	48 b8 20 74 68 65 20 	movabs $0x7365722065687420,%rax
  4028c4:	72 65 73 
  4028c7:	48 89 43 20          	mov    %rax,0x20(%rbx)
  4028cb:	48 b8 75 6c 74 20 73 	movabs $0x7672657320746c75,%rax
  4028d2:	65 72 76 
  4028d5:	48 89 43 28          	mov    %rax,0x28(%rbx)
  4028d9:	66 c7 43 30 65 72    	movw   $0x7265,0x30(%rbx)
  4028df:	c6 43 32 00          	movb   $0x0,0x32(%rbx)
  4028e3:	89 ef                	mov    %ebp,%edi
  4028e5:	e8 46 e4 ff ff       	callq  400d30 <close@plt>
  4028ea:	b8 ff ff ff ff       	mov    $0xffffffff,%eax
  4028ef:	e9 1e 03 00 00       	jmpq   402c12 <submitr+0x746>
  4028f4:	89 ee                	mov    %ebp,%esi
  4028f6:	48 8d 7c 24 30       	lea    0x30(%rsp),%rdi
  4028fb:	e8 ee f8 ff ff       	callq  4021ee <rio_readinitb>
  402900:	ba 00 20 00 00       	mov    $0x2000,%edx
  402905:	48 8d b4 24 40 20 00 	lea    0x2040(%rsp),%rsi
  40290c:	00 
  40290d:	48 8d 7c 24 30       	lea    0x30(%rsp),%rdi
  402912:	e8 fe f9 ff ff       	callq  402315 <rio_readlineb>
  402917:	48 85 c0             	test   %rax,%rax
  40291a:	7f 7d                	jg     402999 <submitr+0x4cd>
  40291c:	48 b8 45 72 72 6f 72 	movabs $0x43203a726f727245,%rax
  402923:	3a 20 43 
  402926:	48 89 03             	mov    %rax,(%rbx)
  402929:	48 b8 6c 69 65 6e 74 	movabs $0x6e7520746e65696c,%rax
  402930:	20 75 6e 
  402933:	48 89 43 08          	mov    %rax,0x8(%rbx)
  402937:	48 b8 61 62 6c 65 20 	movabs $0x206f7420656c6261,%rax
  40293e:	74 6f 20 
  402941:	48 89 43 10          	mov    %rax,0x10(%rbx)
  402945:	48 b8 72 65 61 64 20 	movabs $0x7269662064616572,%rax
  40294c:	66 69 72 
  40294f:	48 89 43 18          	mov    %rax,0x18(%rbx)
  402953:	48 b8 73 74 20 68 65 	movabs $0x6564616568207473,%rax
  40295a:	61 64 65 
  40295d:	48 89 43 20          	mov    %rax,0x20(%rbx)
  402961:	48 b8 72 20 66 72 6f 	movabs $0x72206d6f72662072,%rax
  402968:	6d 20 72 
  40296b:	48 89 43 28          	mov    %rax,0x28(%rbx)
  40296f:	48 b8 65 73 75 6c 74 	movabs $0x657320746c757365,%rax
  402976:	20 73 65 
  402979:	48 89 43 30          	mov    %rax,0x30(%rbx)
  40297d:	c7 43 38 72 76 65 72 	movl   $0x72657672,0x38(%rbx)
  402984:	c6 43 3c 00          	movb   $0x0,0x3c(%rbx)
  402988:	89 ef                	mov    %ebp,%edi
  40298a:	e8 a1 e3 ff ff       	callq  400d30 <close@plt>
  40298f:	b8 ff ff ff ff       	mov    $0xffffffff,%eax
  402994:	e9 79 02 00 00       	jmpq   402c12 <submitr+0x746>
  402999:	4c 8d 84 24 40 80 00 	lea    0x8040(%rsp),%r8
  4029a0:	00 
  4029a1:	48 8d 4c 24 1c       	lea    0x1c(%rsp),%rcx
  4029a6:	48 8d 94 24 40 60 00 	lea    0x6040(%rsp),%rdx
  4029ad:	00 
  4029ae:	be 6f 37 40 00       	mov    $0x40376f,%esi
  4029b3:	48 8d bc 24 40 20 00 	lea    0x2040(%rsp),%rdi
  4029ba:	00 
  4029bb:	b8 00 00 00 00       	mov    $0x0,%eax
  4029c0:	e8 1b e4 ff ff       	callq  400de0 <__isoc99_sscanf@plt>
  4029c5:	e9 95 00 00 00       	jmpq   402a5f <submitr+0x593>
  4029ca:	ba 00 20 00 00       	mov    $0x2000,%edx
  4029cf:	48 8d b4 24 40 20 00 	lea    0x2040(%rsp),%rsi
  4029d6:	00 
  4029d7:	48 8d 7c 24 30       	lea    0x30(%rsp),%rdi
  4029dc:	e8 34 f9 ff ff       	callq  402315 <rio_readlineb>
  4029e1:	48 85 c0             	test   %rax,%rax
  4029e4:	7f 79                	jg     402a5f <submitr+0x593>
  4029e6:	48 b8 45 72 72 6f 72 	movabs $0x43203a726f727245,%rax
  4029ed:	3a 20 43 
  4029f0:	48 89 03             	mov    %rax,(%rbx)
  4029f3:	48 b8 6c 69 65 6e 74 	movabs $0x6e7520746e65696c,%rax
  4029fa:	20 75 6e 
  4029fd:	48 89 43 08          	mov    %rax,0x8(%rbx)
  402a01:	48 b8 61 62 6c 65 20 	movabs $0x206f7420656c6261,%rax
  402a08:	74 6f 20 
  402a0b:	48 89 43 10          	mov    %rax,0x10(%rbx)
  402a0f:	48 b8 72 65 61 64 20 	movabs $0x6165682064616572,%rax
  402a16:	68 65 61 
  402a19:	48 89 43 18          	mov    %rax,0x18(%rbx)
  402a1d:	48 b8 64 65 72 73 20 	movabs $0x6f72662073726564,%rax
  402a24:	66 72 6f 
  402a27:	48 89 43 20          	mov    %rax,0x20(%rbx)
  402a2b:	48 b8 6d 20 74 68 65 	movabs $0x657220656874206d,%rax
  402a32:	20 72 65 
  402a35:	48 89 43 28          	mov    %rax,0x28(%rbx)
  402a39:	48 b8 73 75 6c 74 20 	movabs $0x72657320746c7573,%rax
  402a40:	73 65 72 
  402a43:	48 89 43 30          	mov    %rax,0x30(%rbx)
  402a47:	c7 43 38 76 65 72 00 	movl   $0x726576,0x38(%rbx)
  402a4e:	89 ef                	mov    %ebp,%edi
  402a50:	e8 db e2 ff ff       	callq  400d30 <close@plt>
  402a55:	b8 ff ff ff ff       	mov    $0xffffffff,%eax
  402a5a:	e9 b3 01 00 00       	jmpq   402c12 <submitr+0x746>
  402a5f:	0f b6 94 24 40 20 00 	movzbl 0x2040(%rsp),%edx
  402a66:	00 
  402a67:	b8 0d 00 00 00       	mov    $0xd,%eax
  402a6c:	29 d0                	sub    %edx,%eax
  402a6e:	75 1b                	jne    402a8b <submitr+0x5bf>
  402a70:	0f b6 94 24 41 20 00 	movzbl 0x2041(%rsp),%edx
  402a77:	00 
  402a78:	b8 0a 00 00 00       	mov    $0xa,%eax
  402a7d:	29 d0                	sub    %edx,%eax
  402a7f:	75 0a                	jne    402a8b <submitr+0x5bf>
  402a81:	0f b6 84 24 42 20 00 	movzbl 0x2042(%rsp),%eax
  402a88:	00 
  402a89:	f7 d8                	neg    %eax
  402a8b:	85 c0                	test   %eax,%eax
  402a8d:	0f 85 37 ff ff ff    	jne    4029ca <submitr+0x4fe>
  402a93:	ba 00 20 00 00       	mov    $0x2000,%edx
  402a98:	48 8d b4 24 40 20 00 	lea    0x2040(%rsp),%rsi
  402a9f:	00 
  402aa0:	48 8d 7c 24 30       	lea    0x30(%rsp),%rdi
  402aa5:	e8 6b f8 ff ff       	callq  402315 <rio_readlineb>
  402aaa:	48 85 c0             	test   %rax,%rax
  402aad:	0f 8f 83 00 00 00    	jg     402b36 <submitr+0x66a>
  402ab3:	48 b8 45 72 72 6f 72 	movabs $0x43203a726f727245,%rax
  402aba:	3a 20 43 
  402abd:	48 89 03             	mov    %rax,(%rbx)
  402ac0:	48 b8 6c 69 65 6e 74 	movabs $0x6e7520746e65696c,%rax
  402ac7:	20 75 6e 
  402aca:	48 89 43 08          	mov    %rax,0x8(%rbx)
  402ace:	48 b8 61 62 6c 65 20 	movabs $0x206f7420656c6261,%rax
  402ad5:	74 6f 20 
  402ad8:	48 89 43 10          	mov    %rax,0x10(%rbx)
  402adc:	48 b8 72 65 61 64 20 	movabs $0x6174732064616572,%rax
  402ae3:	73 74 61 
  402ae6:	48 89 43 18          	mov    %rax,0x18(%rbx)
  402aea:	48 b8 74 75 73 20 6d 	movabs $0x7373656d20737574,%rax
  402af1:	65 73 73 
  402af4:	48 89 43 20          	mov    %rax,0x20(%rbx)
  402af8:	48 b8 61 67 65 20 66 	movabs $0x6d6f726620656761,%rax
  402aff:	72 6f 6d 
  402b02:	48 89 43 28          	mov    %rax,0x28(%rbx)
  402b06:	48 b8 20 72 65 73 75 	movabs $0x20746c7573657220,%rax
  402b0d:	6c 74 20 
  402b10:	48 89 43 30          	mov    %rax,0x30(%rbx)
  402b14:	c7 43 38 73 65 72 76 	movl   $0x76726573,0x38(%rbx)
  402b1b:	66 c7 43 3c 65 72    	movw   $0x7265,0x3c(%rbx)
  402b21:	c6 43 3e 00          	movb   $0x0,0x3e(%rbx)
  402b25:	89 ef                	mov    %ebp,%edi
  402b27:	e8 04 e2 ff ff       	callq  400d30 <close@plt>
  402b2c:	b8 ff ff ff ff       	mov    $0xffffffff,%eax
  402b31:	e9 dc 00 00 00       	jmpq   402c12 <submitr+0x746>
  402b36:	44 8b 44 24 1c       	mov    0x1c(%rsp),%r8d
  402b3b:	41 81 f8 c8 00 00 00 	cmp    $0xc8,%r8d
  402b42:	74 37                	je     402b7b <submitr+0x6af>
  402b44:	4c 8d 8c 24 40 80 00 	lea    0x8040(%rsp),%r9
  402b4b:	00 
  402b4c:	b9 38 37 40 00       	mov    $0x403738,%ecx
  402b51:	48 c7 c2 ff ff ff ff 	mov    $0xffffffffffffffff,%rdx
  402b58:	be 01 00 00 00       	mov    $0x1,%esi
  402b5d:	48 89 df             	mov    %rbx,%rdi
  402b60:	b8 00 00 00 00       	mov    $0x0,%eax
  402b65:	e8 16 e3 ff ff       	callq  400e80 <__sprintf_chk@plt>
  402b6a:	89 ef                	mov    %ebp,%edi
  402b6c:	e8 bf e1 ff ff       	callq  400d30 <close@plt>
  402b71:	b8 ff ff ff ff       	mov    $0xffffffff,%eax
  402b76:	e9 97 00 00 00       	jmpq   402c12 <submitr+0x746>
  402b7b:	48 8d b4 24 40 20 00 	lea    0x2040(%rsp),%rsi
  402b82:	00 
  402b83:	48 89 df             	mov    %rbx,%rdi
  402b86:	e8 35 e1 ff ff       	callq  400cc0 <strcpy@plt>
  402b8b:	89 ef                	mov    %ebp,%edi
  402b8d:	e8 9e e1 ff ff       	callq  400d30 <close@plt>
  402b92:	0f b6 03             	movzbl (%rbx),%eax
  402b95:	ba 4f 00 00 00       	mov    $0x4f,%edx
  402b9a:	29 c2                	sub    %eax,%edx
  402b9c:	75 22                	jne    402bc0 <submitr+0x6f4>
  402b9e:	0f b6 4b 01          	movzbl 0x1(%rbx),%ecx
  402ba2:	b8 4b 00 00 00       	mov    $0x4b,%eax
  402ba7:	29 c8                	sub    %ecx,%eax
  402ba9:	75 17                	jne    402bc2 <submitr+0x6f6>
  402bab:	0f b6 4b 02          	movzbl 0x2(%rbx),%ecx
  402baf:	b8 0a 00 00 00       	mov    $0xa,%eax
  402bb4:	29 c8                	sub    %ecx,%eax
  402bb6:	75 0a                	jne    402bc2 <submitr+0x6f6>
  402bb8:	0f b6 43 03          	movzbl 0x3(%rbx),%eax
  402bbc:	f7 d8                	neg    %eax
  402bbe:	eb 02                	jmp    402bc2 <submitr+0x6f6>
  402bc0:	89 d0                	mov    %edx,%eax
  402bc2:	85 c0                	test   %eax,%eax
  402bc4:	74 40                	je     402c06 <submitr+0x73a>
  402bc6:	bf 80 37 40 00       	mov    $0x403780,%edi
  402bcb:	b9 05 00 00 00       	mov    $0x5,%ecx
  402bd0:	48 89 de             	mov    %rbx,%rsi
  402bd3:	f3 a6                	repz cmpsb %es:(%rdi),%ds:(%rsi)
  402bd5:	0f 97 c0             	seta   %al
  402bd8:	0f 92 c1             	setb   %cl
  402bdb:	29 c8                	sub    %ecx,%eax
  402bdd:	0f be c0             	movsbl %al,%eax
  402be0:	85 c0                	test   %eax,%eax
  402be2:	74 2e                	je     402c12 <submitr+0x746>
  402be4:	85 d2                	test   %edx,%edx
  402be6:	75 13                	jne    402bfb <submitr+0x72f>
  402be8:	0f b6 43 01          	movzbl 0x1(%rbx),%eax
  402bec:	ba 4b 00 00 00       	mov    $0x4b,%edx
  402bf1:	29 c2                	sub    %eax,%edx
  402bf3:	75 06                	jne    402bfb <submitr+0x72f>
  402bf5:	0f b6 53 02          	movzbl 0x2(%rbx),%edx
  402bf9:	f7 da                	neg    %edx
  402bfb:	85 d2                	test   %edx,%edx
  402bfd:	75 0e                	jne    402c0d <submitr+0x741>
  402bff:	b8 00 00 00 00       	mov    $0x0,%eax
  402c04:	eb 0c                	jmp    402c12 <submitr+0x746>
  402c06:	b8 00 00 00 00       	mov    $0x0,%eax
  402c0b:	eb 05                	jmp    402c12 <submitr+0x746>
  402c0d:	b8 ff ff ff ff       	mov    $0xffffffff,%eax
  402c12:	48 8b 9c 24 48 a0 00 	mov    0xa048(%rsp),%rbx
  402c19:	00 
  402c1a:	64 48 33 1c 25 28 00 	xor    %fs:0x28,%rbx
  402c21:	00 00 
  402c23:	74 05                	je     402c2a <submitr+0x75e>
  402c25:	e8 c6 e0 ff ff       	callq  400cf0 <__stack_chk_fail@plt>
  402c2a:	48 81 c4 58 a0 00 00 	add    $0xa058,%rsp
  402c31:	5b                   	pop    %rbx
  402c32:	5d                   	pop    %rbp
  402c33:	41 5c                	pop    %r12
  402c35:	41 5d                	pop    %r13
  402c37:	41 5e                	pop    %r14
  402c39:	41 5f                	pop    %r15
  402c3b:	c3                   	retq   

0000000000402c3c <init_timeout>:
  402c3c:	85 ff                	test   %edi,%edi
  402c3e:	74 23                	je     402c63 <init_timeout+0x27>
  402c40:	53                   	push   %rbx
  402c41:	89 fb                	mov    %edi,%ebx
  402c43:	85 ff                	test   %edi,%edi
  402c45:	79 05                	jns    402c4c <init_timeout+0x10>
  402c47:	bb 00 00 00 00       	mov    $0x0,%ebx
  402c4c:	be 00 22 40 00       	mov    $0x402200,%esi
  402c51:	bf 0e 00 00 00       	mov    $0xe,%edi
  402c56:	e8 05 e1 ff ff       	callq  400d60 <signal@plt>
  402c5b:	89 df                	mov    %ebx,%edi
  402c5d:	e8 be e0 ff ff       	callq  400d20 <alarm@plt>
  402c62:	5b                   	pop    %rbx
  402c63:	f3 c3                	repz retq 

0000000000402c65 <init_driver>:
  402c65:	55                   	push   %rbp
  402c66:	53                   	push   %rbx
  402c67:	48 83 ec 28          	sub    $0x28,%rsp
  402c6b:	48 89 fd             	mov    %rdi,%rbp
  402c6e:	64 48 8b 04 25 28 00 	mov    %fs:0x28,%rax
  402c75:	00 00 
  402c77:	48 89 44 24 18       	mov    %rax,0x18(%rsp)
  402c7c:	31 c0                	xor    %eax,%eax
  402c7e:	be 01 00 00 00       	mov    $0x1,%esi
  402c83:	bf 0d 00 00 00       	mov    $0xd,%edi
  402c88:	e8 d3 e0 ff ff       	callq  400d60 <signal@plt>
  402c8d:	be 01 00 00 00       	mov    $0x1,%esi
  402c92:	bf 1d 00 00 00       	mov    $0x1d,%edi
  402c97:	e8 c4 e0 ff ff       	callq  400d60 <signal@plt>
  402c9c:	be 01 00 00 00       	mov    $0x1,%esi
  402ca1:	bf 1d 00 00 00       	mov    $0x1d,%edi
  402ca6:	e8 b5 e0 ff ff       	callq  400d60 <signal@plt>
  402cab:	ba 00 00 00 00       	mov    $0x0,%edx
  402cb0:	be 01 00 00 00       	mov    $0x1,%esi
  402cb5:	bf 02 00 00 00       	mov    $0x2,%edi
  402cba:	e8 d1 e1 ff ff       	callq  400e90 <socket@plt>
  402cbf:	85 c0                	test   %eax,%eax
  402cc1:	79 4f                	jns    402d12 <init_driver+0xad>
  402cc3:	48 b8 45 72 72 6f 72 	movabs $0x43203a726f727245,%rax
  402cca:	3a 20 43 
  402ccd:	48 89 45 00          	mov    %rax,0x0(%rbp)
  402cd1:	48 b8 6c 69 65 6e 74 	movabs $0x6e7520746e65696c,%rax
  402cd8:	20 75 6e 
  402cdb:	48 89 45 08          	mov    %rax,0x8(%rbp)
  402cdf:	48 b8 61 62 6c 65 20 	movabs $0x206f7420656c6261,%rax
  402ce6:	74 6f 20 
  402ce9:	48 89 45 10          	mov    %rax,0x10(%rbp)
  402ced:	48 b8 63 72 65 61 74 	movabs $0x7320657461657263,%rax
  402cf4:	65 20 73 
  402cf7:	48 89 45 18          	mov    %rax,0x18(%rbp)
  402cfb:	c7 45 20 6f 63 6b 65 	movl   $0x656b636f,0x20(%rbp)
  402d02:	66 c7 45 24 74 00    	movw   $0x74,0x24(%rbp)
  402d08:	b8 ff ff ff ff       	mov    $0xffffffff,%eax
  402d0d:	e9 2a 01 00 00       	jmpq   402e3c <init_driver+0x1d7>
  402d12:	89 c3                	mov    %eax,%ebx
  402d14:	bf bc 32 40 00       	mov    $0x4032bc,%edi
  402d19:	e8 52 e0 ff ff       	callq  400d70 <gethostbyname@plt>
  402d1e:	48 85 c0             	test   %rax,%rax
  402d21:	75 68                	jne    402d8b <init_driver+0x126>
  402d23:	48 b8 45 72 72 6f 72 	movabs $0x44203a726f727245,%rax
  402d2a:	3a 20 44 
  402d2d:	48 89 45 00          	mov    %rax,0x0(%rbp)
  402d31:	48 b8 4e 53 20 69 73 	movabs $0x6e7520736920534e,%rax
  402d38:	20 75 6e 
  402d3b:	48 89 45 08          	mov    %rax,0x8(%rbp)
  402d3f:	48 b8 61 62 6c 65 20 	movabs $0x206f7420656c6261,%rax
  402d46:	74 6f 20 
  402d49:	48 89 45 10          	mov    %rax,0x10(%rbp)
  402d4d:	48 b8 72 65 73 6f 6c 	movabs $0x2065766c6f736572,%rax
  402d54:	76 65 20 
  402d57:	48 89 45 18          	mov    %rax,0x18(%rbp)
  402d5b:	48 b8 73 65 72 76 65 	movabs $0x6120726576726573,%rax
  402d62:	72 20 61 
  402d65:	48 89 45 20          	mov    %rax,0x20(%rbp)
  402d69:	c7 45 28 64 64 72 65 	movl   $0x65726464,0x28(%rbp)
  402d70:	66 c7 45 2c 73 73    	movw   $0x7373,0x2c(%rbp)
  402d76:	c6 45 2e 00          	movb   $0x0,0x2e(%rbp)
  402d7a:	89 df                	mov    %ebx,%edi
  402d7c:	e8 af df ff ff       	callq  400d30 <close@plt>
  402d81:	b8 ff ff ff ff       	mov    $0xffffffff,%eax
  402d86:	e9 b1 00 00 00       	jmpq   402e3c <init_driver+0x1d7>
  402d8b:	48 c7 04 24 00 00 00 	movq   $0x0,(%rsp)
  402d92:	00 
  402d93:	48 c7 44 24 08 00 00 	movq   $0x0,0x8(%rsp)
  402d9a:	00 00 
  402d9c:	66 c7 04 24 02 00    	movw   $0x2,(%rsp)
  402da2:	48 63 50 14          	movslq 0x14(%rax),%rdx
  402da6:	48 8b 40 18          	mov    0x18(%rax),%rax
  402daa:	48 8b 30             	mov    (%rax),%rsi
  402dad:	48 8d 7c 24 04       	lea    0x4(%rsp),%rdi
  402db2:	b9 0c 00 00 00       	mov    $0xc,%ecx
  402db7:	e8 c4 df ff ff       	callq  400d80 <__memmove_chk@plt>
  402dbc:	66 c7 44 24 02 55 fc 	movw   $0xfc55,0x2(%rsp)
  402dc3:	ba 10 00 00 00       	mov    $0x10,%edx
  402dc8:	48 89 e6             	mov    %rsp,%rsi
  402dcb:	89 df                	mov    %ebx,%edi
  402dcd:	e8 8e e0 ff ff       	callq  400e60 <connect@plt>
  402dd2:	85 c0                	test   %eax,%eax
  402dd4:	79 50                	jns    402e26 <init_driver+0x1c1>
  402dd6:	48 b8 45 72 72 6f 72 	movabs $0x55203a726f727245,%rax
  402ddd:	3a 20 55 
  402de0:	48 89 45 00          	mov    %rax,0x0(%rbp)
  402de4:	48 b8 6e 61 62 6c 65 	movabs $0x6f7420656c62616e,%rax
  402deb:	20 74 6f 
  402dee:	48 89 45 08          	mov    %rax,0x8(%rbp)
  402df2:	48 b8 20 63 6f 6e 6e 	movabs $0x7463656e6e6f6320,%rax
  402df9:	65 63 74 
  402dfc:	48 89 45 10          	mov    %rax,0x10(%rbp)
  402e00:	48 b8 20 74 6f 20 73 	movabs $0x76726573206f7420,%rax
  402e07:	65 72 76 
  402e0a:	48 89 45 18          	mov    %rax,0x18(%rbp)
  402e0e:	66 c7 45 20 65 72    	movw   $0x7265,0x20(%rbp)
  402e14:	c6 45 22 00          	movb   $0x0,0x22(%rbp)
  402e18:	89 df                	mov    %ebx,%edi
  402e1a:	e8 11 df ff ff       	callq  400d30 <close@plt>
  402e1f:	b8 ff ff ff ff       	mov    $0xffffffff,%eax
  402e24:	eb 16                	jmp    402e3c <init_driver+0x1d7>
  402e26:	89 df                	mov    %ebx,%edi
  402e28:	e8 03 df ff ff       	callq  400d30 <close@plt>
  402e2d:	66 c7 45 00 4f 4b    	movw   $0x4b4f,0x0(%rbp)
  402e33:	c6 45 02 00          	movb   $0x0,0x2(%rbp)
  402e37:	b8 00 00 00 00       	mov    $0x0,%eax
  402e3c:	48 8b 4c 24 18       	mov    0x18(%rsp),%rcx
  402e41:	64 48 33 0c 25 28 00 	xor    %fs:0x28,%rcx
  402e48:	00 00 
  402e4a:	74 05                	je     402e51 <init_driver+0x1ec>
  402e4c:	e8 9f de ff ff       	callq  400cf0 <__stack_chk_fail@plt>
  402e51:	48 83 c4 28          	add    $0x28,%rsp
  402e55:	5b                   	pop    %rbx
  402e56:	5d                   	pop    %rbp
  402e57:	c3                   	retq   

0000000000402e58 <driver_post>:
  402e58:	53                   	push   %rbx
  402e59:	4c 89 cb             	mov    %r9,%rbx
  402e5c:	45 85 c0             	test   %r8d,%r8d
  402e5f:	74 27                	je     402e88 <driver_post+0x30>
  402e61:	48 89 ca             	mov    %rcx,%rdx
  402e64:	be 85 37 40 00       	mov    $0x403785,%esi
  402e69:	bf 01 00 00 00       	mov    $0x1,%edi
  402e6e:	b8 00 00 00 00       	mov    $0x0,%eax
  402e73:	e8 88 df ff ff       	callq  400e00 <__printf_chk@plt>
  402e78:	66 c7 03 4f 4b       	movw   $0x4b4f,(%rbx)
  402e7d:	c6 43 02 00          	movb   $0x0,0x2(%rbx)
  402e81:	b8 00 00 00 00       	mov    $0x0,%eax
  402e86:	eb 3f                	jmp    402ec7 <driver_post+0x6f>
  402e88:	48 85 ff             	test   %rdi,%rdi
  402e8b:	74 2c                	je     402eb9 <driver_post+0x61>
  402e8d:	80 3f 00             	cmpb   $0x0,(%rdi)
  402e90:	74 27                	je     402eb9 <driver_post+0x61>
  402e92:	48 83 ec 08          	sub    $0x8,%rsp
  402e96:	41 51                	push   %r9
  402e98:	49 89 c9             	mov    %rcx,%r9
  402e9b:	49 89 d0             	mov    %rdx,%r8
  402e9e:	48 89 f9             	mov    %rdi,%rcx
  402ea1:	48 89 f2             	mov    %rsi,%rdx
  402ea4:	be fc 55 00 00       	mov    $0x55fc,%esi
  402ea9:	bf bc 32 40 00       	mov    $0x4032bc,%edi
  402eae:	e8 19 f6 ff ff       	callq  4024cc <submitr>
  402eb3:	48 83 c4 10          	add    $0x10,%rsp
  402eb7:	eb 0e                	jmp    402ec7 <driver_post+0x6f>
  402eb9:	66 c7 03 4f 4b       	movw   $0x4b4f,(%rbx)
  402ebe:	c6 43 02 00          	movb   $0x0,0x2(%rbx)
  402ec2:	b8 00 00 00 00       	mov    $0x0,%eax
  402ec7:	5b                   	pop    %rbx
  402ec8:	c3                   	retq   

0000000000402ec9 <check>:
  402ec9:	89 f8                	mov    %edi,%eax
  402ecb:	c1 e8 1c             	shr    $0x1c,%eax
  402ece:	85 c0                	test   %eax,%eax
  402ed0:	74 1d                	je     402eef <check+0x26>
  402ed2:	b9 00 00 00 00       	mov    $0x0,%ecx
  402ed7:	eb 0b                	jmp    402ee4 <check+0x1b>
  402ed9:	89 f8                	mov    %edi,%eax
  402edb:	d3 e8                	shr    %cl,%eax
  402edd:	3c 0a                	cmp    $0xa,%al
  402edf:	74 14                	je     402ef5 <check+0x2c>
  402ee1:	83 c1 08             	add    $0x8,%ecx
  402ee4:	83 f9 1f             	cmp    $0x1f,%ecx
  402ee7:	7e f0                	jle    402ed9 <check+0x10>
  402ee9:	b8 01 00 00 00       	mov    $0x1,%eax
  402eee:	c3                   	retq   
  402eef:	b8 00 00 00 00       	mov    $0x0,%eax
  402ef4:	c3                   	retq   
  402ef5:	b8 00 00 00 00       	mov    $0x0,%eax
  402efa:	c3                   	retq   

0000000000402efb <gencookie>:
  402efb:	53                   	push   %rbx
  402efc:	83 c7 01             	add    $0x1,%edi
  402eff:	e8 9c dd ff ff       	callq  400ca0 <srandom@plt>
  402f04:	e8 b7 de ff ff       	callq  400dc0 <random@plt>
  402f09:	89 c3                	mov    %eax,%ebx
  402f0b:	89 c7                	mov    %eax,%edi
  402f0d:	e8 b7 ff ff ff       	callq  402ec9 <check>
  402f12:	85 c0                	test   %eax,%eax
  402f14:	74 ee                	je     402f04 <gencookie+0x9>
  402f16:	89 d8                	mov    %ebx,%eax
  402f18:	5b                   	pop    %rbx
  402f19:	c3                   	retq   
  402f1a:	66 0f 1f 44 00 00    	nopw   0x0(%rax,%rax,1)

0000000000402f20 <__libc_csu_init>:
  402f20:	41 57                	push   %r15
  402f22:	41 56                	push   %r14
  402f24:	41 89 ff             	mov    %edi,%r15d
  402f27:	41 55                	push   %r13
  402f29:	41 54                	push   %r12
  402f2b:	4c 8d 25 de 1e 20 00 	lea    0x201ede(%rip),%r12        # 604e10 <__frame_dummy_init_array_entry>
  402f32:	55                   	push   %rbp
  402f33:	48 8d 2d de 1e 20 00 	lea    0x201ede(%rip),%rbp        # 604e18 <__init_array_end>
  402f3a:	53                   	push   %rbx
  402f3b:	49 89 f6             	mov    %rsi,%r14
  402f3e:	49 89 d5             	mov    %rdx,%r13
  402f41:	4c 29 e5             	sub    %r12,%rbp
  402f44:	48 83 ec 08          	sub    $0x8,%rsp
  402f48:	48 c1 fd 03          	sar    $0x3,%rbp
  402f4c:	e8 f7 dc ff ff       	callq  400c48 <_init>
  402f51:	48 85 ed             	test   %rbp,%rbp
  402f54:	74 20                	je     402f76 <__libc_csu_init+0x56>
  402f56:	31 db                	xor    %ebx,%ebx
  402f58:	0f 1f 84 00 00 00 00 	nopl   0x0(%rax,%rax,1)
  402f5f:	00 
  402f60:	4c 89 ea             	mov    %r13,%rdx
  402f63:	4c 89 f6             	mov    %r14,%rsi
  402f66:	44 89 ff             	mov    %r15d,%edi
  402f69:	41 ff 14 dc          	callq  *(%r12,%rbx,8)
  402f6d:	48 83 c3 01          	add    $0x1,%rbx
  402f71:	48 39 eb             	cmp    %rbp,%rbx
  402f74:	75 ea                	jne    402f60 <__libc_csu_init+0x40>
  402f76:	48 83 c4 08          	add    $0x8,%rsp
  402f7a:	5b                   	pop    %rbx
  402f7b:	5d                   	pop    %rbp
  402f7c:	41 5c                	pop    %r12
  402f7e:	41 5d                	pop    %r13
  402f80:	41 5e                	pop    %r14
  402f82:	41 5f                	pop    %r15
  402f84:	c3                   	retq   
  402f85:	90                   	nop
  402f86:	66 2e 0f 1f 84 00 00 	nopw   %cs:0x0(%rax,%rax,1)
  402f8d:	00 00 00 

0000000000402f90 <__libc_csu_fini>:
  402f90:	f3 c3                	repz retq 

Disassembly of section .fini:

0000000000402f94 <_fini>:
  402f94:	48 83 ec 08          	sub    $0x8,%rsp
  402f98:	48 83 c4 08          	add    $0x8,%rsp
  402f9c:	c3                   	retq   
